
USB.elf:     file format elf32-avr32

Sections:
Idx Name          Size      VMA       LMA       File off  Algn
  0 .reset        00002004  80000000  80000000  00000400  2**2
                  CONTENTS, ALLOC, LOAD, READONLY, CODE
  1 .rela.got     00000000  80002004  80002004  00002404  2**2
                  CONTENTS, ALLOC, LOAD, READONLY, DATA
  2 .text         00004b0a  80002004  80002004  00002404  2**2
                  CONTENTS, ALLOC, LOAD, READONLY, CODE
  3 .exception    00000200  80006c00  80006c00  00007000  2**9
                  CONTENTS, ALLOC, LOAD, READONLY, CODE
  4 .rodata       00000254  80006e00  80006e00  00007200  2**2
                  CONTENTS, ALLOC, LOAD, READONLY, DATA
  5 .lalign       00000004  80007054  80007054  00007454  2**0
                  ALLOC
  6 .dalign       00000004  00000004  00000004  00000000  2**0
                  ALLOC
  7 .data         000000f0  00000008  80007058  00007808  2**2
                  CONTENTS, ALLOC, LOAD, DATA
  8 .bss          000008c0  000000f8  000000f8  00000000  2**2
                  ALLOC
  9 .heap         00006648  000009b8  000009b8  00000000  2**0
                  ALLOC
 10 .comment      00000030  00000000  00000000  000078f8  2**0
                  CONTENTS, READONLY
 11 .debug_aranges 00000020  00000000  00000000  00007928  2**0
                  CONTENTS, READONLY, DEBUGGING
 12 .debug_pubnames 0000004b  00000000  00000000  00007948  2**0
                  CONTENTS, READONLY, DEBUGGING
 13 .debug_info   0000013e  00000000  00000000  00007993  2**0
                  CONTENTS, READONLY, DEBUGGING
 14 .debug_abbrev 000000de  00000000  00000000  00007ad1  2**0
                  CONTENTS, READONLY, DEBUGGING
 15 .debug_line   000001f4  00000000  00000000  00007baf  2**0
                  CONTENTS, READONLY, DEBUGGING
 16 .debug_frame  00002958  00000000  00000000  00007da4  2**2
                  CONTENTS, READONLY, DEBUGGING
 17 .debug_str    0000012d  00000000  00000000  0000a6fc  2**0
                  CONTENTS, READONLY, DEBUGGING
 18 .stack        00001000  00007000  00007000  00000000  2**0
                  ALLOC
 19 .debug_ranges 00000018  00000000  00000000  0000a829  2**0
                  CONTENTS, READONLY, DEBUGGING

Disassembly of section .reset:

80000000 <_trampoline>:
80000000:	e0 8f 10 00 	bral	80002000 <program_start>
	...

80002000 <program_start>:
80002000:	fe cf c1 48 	sub	pc,pc,-16056

Disassembly of section .text:

80002004 <board_init>:
80002004:	d4 01       	pushm	lr
80002006:	30 3b       	mov	r11,3
80002008:	30 7c       	mov	r12,7
8000200a:	e0 a0 16 d5 	rcall	80004db4 <gpio_configure_pin>
8000200e:	30 3b       	mov	r11,3
80002010:	30 8c       	mov	r12,8
80002012:	e0 a0 16 d1 	rcall	80004db4 <gpio_configure_pin>
80002016:	30 3b       	mov	r11,3
80002018:	31 5c       	mov	r12,21
8000201a:	e0 a0 16 cd 	rcall	80004db4 <gpio_configure_pin>
8000201e:	30 3b       	mov	r11,3
80002020:	31 6c       	mov	r12,22
80002022:	e0 a0 16 c9 	rcall	80004db4 <gpio_configure_pin>
80002026:	30 0b       	mov	r11,0
80002028:	32 2c       	mov	r12,34
8000202a:	e0 a0 16 c5 	rcall	80004db4 <gpio_configure_pin>
8000202e:	30 0b       	mov	r11,0
80002030:	32 3c       	mov	r12,35
80002032:	e0 a0 16 c1 	rcall	80004db4 <gpio_configure_pin>
80002036:	30 0b       	mov	r11,0
80002038:	30 dc       	mov	r12,13
8000203a:	e0 a0 16 bd 	rcall	80004db4 <gpio_configure_pin>
8000203e:	30 0b       	mov	r11,0
80002040:	32 6c       	mov	r12,38
80002042:	e0 a0 16 b9 	rcall	80004db4 <gpio_configure_pin>
80002046:	30 0b       	mov	r11,0
80002048:	32 7c       	mov	r12,39
8000204a:	e0 a0 16 b5 	rcall	80004db4 <gpio_configure_pin>
8000204e:	30 0b       	mov	r11,0
80002050:	32 8c       	mov	r12,40
80002052:	e0 a0 16 b1 	rcall	80004db4 <gpio_configure_pin>
80002056:	30 4b       	mov	r11,4
80002058:	48 8c       	lddpc	r12,80002078 <board_init+0x74>
8000205a:	e0 a0 16 9d 	rcall	80004d94 <gpio_enable_module>
8000205e:	30 4b       	mov	r11,4
80002060:	48 7c       	lddpc	r12,8000207c <board_init+0x78>
80002062:	e0 a0 16 99 	rcall	80004d94 <gpio_enable_module>
80002066:	30 2b       	mov	r11,2
80002068:	48 6c       	lddpc	r12,80002080 <board_init+0x7c>
8000206a:	e0 a0 16 95 	rcall	80004d94 <gpio_enable_module>
8000206e:	30 2b       	mov	r11,2
80002070:	48 5c       	lddpc	r12,80002084 <board_init+0x80>
80002072:	e0 a0 16 91 	rcall	80004d94 <gpio_enable_module>
80002076:	d8 02       	popm	pc
80002078:	80 00       	ld.sh	r0,r0[0x0]
8000207a:	6e 0c       	ld.w	r12,r7[0x0]
8000207c:	80 00       	ld.sh	r0,r0[0x0]
8000207e:	6e 04       	ld.w	r4,r7[0x0]
80002080:	80 00       	ld.sh	r0,r0[0x0]
80002082:	6e 14       	ld.w	r4,r7[0x4]
80002084:	80 00       	ld.sh	r0,r0[0x0]
80002086:	6e 00       	ld.w	r0,r7[0x0]

80002088 <sd_mmc_spi_get_capacity>:
80002088:	d4 21       	pushm	r4-r7,lr
8000208a:	4b e9       	lddpc	r9,80002180 <sd_mmc_spi_get_capacity+0xf8>
8000208c:	4b e8       	lddpc	r8,80002184 <sd_mmc_spi_get_capacity+0xfc>
8000208e:	13 8e       	ld.ub	lr,r9[0x0]
80002090:	11 da       	ld.ub	r10,r8[0x5]
80002092:	f1 35 00 08 	ld.ub	r5,r8[8]
80002096:	f1 37 00 09 	ld.ub	r7,r8[9]
8000209a:	11 f6       	ld.ub	r6,r8[0x7]
8000209c:	4b bc       	lddpc	r12,80002188 <sd_mmc_spi_get_capacity+0x100>
8000209e:	4b cb       	lddpc	r11,8000218c <sd_mmc_spi_get_capacity+0x104>
800020a0:	4b c9       	lddpc	r9,80002190 <sd_mmc_spi_get_capacity+0x108>
800020a2:	30 34       	mov	r4,3
800020a4:	e8 0e 18 00 	cp.b	lr,r4
800020a8:	c1 f1       	brne	800020e6 <sd_mmc_spi_get_capacity+0x5e>
800020aa:	ef e5 10 87 	or	r7,r7,r5<<0x8
800020ae:	eb d6 c0 06 	bfextu	r5,r6,0x0,0x6
800020b2:	ef e5 11 05 	or	r5,r7,r5<<0x10
800020b6:	2f f5       	sub	r5,-1
800020b8:	ea 08 16 0d 	lsr	r8,r5,0xd
800020bc:	b3 75       	lsl	r5,0x13
800020be:	10 97       	mov	r7,r8
800020c0:	0a 96       	mov	r6,r5
800020c2:	f8 e7 00 00 	st.d	r12[0],r6
800020c6:	f1 d8 c0 09 	bfextu	r8,r8,0x0,0x9
800020ca:	b6 08       	st.h	r11[0x0],r8
800020cc:	f8 e6 00 00 	ld.d	r6,r12[0]
800020d0:	96 0a       	ld.sh	r10,r11[0x0]
800020d2:	0c 98       	mov	r8,r6
800020d4:	b7 7a       	lsl	r10,0x17
800020d6:	a9 98       	lsr	r8,0x9
800020d8:	0e 95       	mov	r5,r7
800020da:	f1 e5 11 78 	or	r8,r8,r5<<0x17
800020de:	20 18       	sub	r8,1
800020e0:	14 08       	add	r8,r10
800020e2:	93 08       	st.w	r9[0x0],r8
800020e4:	c3 b8       	rjmp	8000215a <sd_mmc_spi_get_capacity+0xd2>
800020e6:	a7 85       	lsr	r5,0x6
800020e8:	11 e4       	ld.ub	r4,r8[0x6]
800020ea:	ea 06 00 26 	add	r6,r5,r6<<0x2
800020ee:	f1 38 00 0a 	ld.ub	r8,r8[10]
800020f2:	f0 05 16 07 	lsr	r5,r8,0x7
800020f6:	ef d7 c0 02 	bfextu	r7,r7,0x0,0x2
800020fa:	e9 d4 c0 02 	bfextu	r4,r4,0x0,0x2
800020fe:	ea 07 00 17 	add	r7,r5,r7<<0x1
80002102:	ab 64       	lsl	r4,0xa
80002104:	2f e7       	sub	r7,-2
80002106:	08 06       	add	r6,r4
80002108:	f5 da c0 04 	bfextu	r10,r10,0x0,0x4
8000210c:	2f f6       	sub	r6,-1
8000210e:	ec 07 09 47 	lsl	r7,r6,r7
80002112:	20 17       	sub	r7,1
80002114:	93 07       	st.w	r9[0x0],r7
80002116:	72 05       	ld.w	r5,r9[0x0]
80002118:	2f f5       	sub	r5,-1
8000211a:	ea 0a 09 45 	lsl	r5,r5,r10
8000211e:	0a 96       	mov	r6,r5
80002120:	30 05       	mov	r5,0
80002122:	0a 97       	mov	r7,r5
80002124:	f8 e7 00 00 	st.d	r12[0],r6
80002128:	30 0c       	mov	r12,0
8000212a:	b6 0c       	st.h	r11[0x0],r12
8000212c:	30 9b       	mov	r11,9
8000212e:	f6 0a 18 00 	cp.b	r10,r11
80002132:	e0 88 00 07 	brls	80002140 <sd_mmc_spi_get_capacity+0xb8>
80002136:	72 0b       	ld.w	r11,r9[0x0]
80002138:	20 9a       	sub	r10,9
8000213a:	f6 0a 09 4a 	lsl	r10,r11,r10
8000213e:	93 0a       	st.w	r9[0x0],r10
80002140:	58 0e       	cp.w	lr,0
80002142:	c0 c1       	brne	8000215a <sd_mmc_spi_get_capacity+0xd2>
80002144:	f5 d8 c0 02 	bfextu	r10,r8,0x0,0x2
80002148:	48 f9       	lddpc	r9,80002184 <sd_mmc_spi_get_capacity+0xfc>
8000214a:	f1 d8 c0 45 	bfextu	r8,r8,0x2,0x5
8000214e:	f3 39 00 0b 	ld.ub	r9,r9[11]
80002152:	a5 99       	lsr	r9,0x5
80002154:	f3 ea 10 39 	or	r9,r9,r10<<0x3
80002158:	c0 c8       	rjmp	80002170 <sd_mmc_spi_get_capacity+0xe8>
8000215a:	48 b9       	lddpc	r9,80002184 <sd_mmc_spi_get_capacity+0xfc>
8000215c:	f3 3a 00 0b 	ld.ub	r10,r9[11]
80002160:	f3 38 00 0a 	ld.ub	r8,r9[10]
80002164:	a7 9a       	lsr	r10,0x7
80002166:	f1 d8 c0 06 	bfextu	r8,r8,0x0,0x6
8000216a:	30 09       	mov	r9,0
8000216c:	f4 08 00 18 	add	r8,r10,r8<<0x1
80002170:	2f f9       	sub	r9,-1
80002172:	2f f8       	sub	r8,-1
80002174:	48 8a       	lddpc	r10,80002194 <sd_mmc_spi_get_capacity+0x10c>
80002176:	f2 08 02 48 	mul	r8,r9,r8
8000217a:	b4 08       	st.h	r10[0x0],r8
8000217c:	d8 22       	popm	r4-r7,pc
8000217e:	d7 03       	nop
80002180:	00 00       	add	r0,r0
80002182:	06 8e       	andn	lr,r3
80002184:	00 00       	add	r0,r0
80002186:	06 90       	mov	r0,r3
80002188:	00 00       	add	r0,r0
8000218a:	06 7c       	tst	r12,r3
8000218c:	00 00       	add	r0,r0
8000218e:	06 84       	andn	r4,r3
80002190:	00 00       	add	r0,r0
80002192:	06 88       	andn	r8,r3
80002194:	00 00       	add	r0,r0
80002196:	06 86       	andn	r6,r3

80002198 <sd_mmc_spi_write_close>:
80002198:	5e fc       	retal	r12
8000219a:	d7 03       	nop

8000219c <sd_mmc_spi_send_and_read>:
8000219c:	d4 01       	pushm	lr
8000219e:	20 1d       	sub	sp,4
800021a0:	18 9b       	mov	r11,r12
800021a2:	fe 7c 24 00 	mov	r12,-56320
800021a6:	e0 a0 17 b6 	rcall	80005112 <spi_write>
800021aa:	fa cb ff fe 	sub	r11,sp,-2
800021ae:	fe 7c 24 00 	mov	r12,-56320
800021b2:	e0 a0 17 be 	rcall	8000512e <spi_read>
800021b6:	58 1c       	cp.w	r12,1
800021b8:	c0 41       	brne	800021c0 <sd_mmc_spi_send_and_read+0x24>
800021ba:	e0 6c 00 ff 	mov	r12,255
800021be:	c0 28       	rjmp	800021c2 <sd_mmc_spi_send_and_read+0x26>
800021c0:	1b bc       	ld.ub	r12,sp[0x3]
800021c2:	2f fd       	sub	sp,-4
800021c4:	d8 02       	popm	pc
800021c6:	d7 03       	nop

800021c8 <sd_mmc_spi_wait_not_busy>:
800021c8:	d4 21       	pushm	r4-r7,lr
800021ca:	30 1b       	mov	r11,1
800021cc:	fe 7c 24 00 	mov	r12,-56320
800021d0:	48 f5       	lddpc	r5,8000220c <sd_mmc_spi_wait_not_busy+0x44>
800021d2:	e0 a0 17 0d 	rcall	80004fec <spi_selectChip>
800021d6:	3f f6       	mov	r6,-1
800021d8:	30 07       	mov	r7,0
800021da:	c0 b8       	rjmp	800021f0 <sd_mmc_spi_wait_not_busy+0x28>
800021dc:	2f f7       	sub	r7,-1
800021de:	e2 57 0d 40 	cp.w	r7,200000
800021e2:	c0 71       	brne	800021f0 <sd_mmc_spi_wait_not_busy+0x28>
800021e4:	30 1b       	mov	r11,1
800021e6:	fe 7c 24 00 	mov	r12,-56320
800021ea:	e0 a0 17 29 	rcall	8000503c <spi_unselectChip>
800021ee:	d8 2a       	popm	r4-r7,pc,r12=0
800021f0:	e0 6c 00 ff 	mov	r12,255
800021f4:	cd 4f       	rcall	8000219c <sd_mmc_spi_send_and_read>
800021f6:	aa 8c       	st.b	r5[0x0],r12
800021f8:	ec 0c 18 00 	cp.b	r12,r6
800021fc:	cf 01       	brne	800021dc <sd_mmc_spi_wait_not_busy+0x14>
800021fe:	30 1b       	mov	r11,1
80002200:	fe 7c 24 00 	mov	r12,-56320
80002204:	e0 a0 17 1c 	rcall	8000503c <spi_unselectChip>
80002208:	da 2a       	popm	r4-r7,pc,r12=1
8000220a:	d7 03       	nop
8000220c:	00 00       	add	r0,r0
8000220e:	06 a0       	st.w	r3++,r0

80002210 <sd_mmc_spi_write_open>:
80002210:	d4 01       	pushm	lr
80002212:	48 38       	lddpc	r8,8000221c <sd_mmc_spi_write_open+0xc>
80002214:	a9 7c       	lsl	r12,0x9
80002216:	91 0c       	st.w	r8[0x0],r12
80002218:	cd 8f       	rcall	800021c8 <sd_mmc_spi_wait_not_busy>
8000221a:	d8 02       	popm	pc
8000221c:	00 00       	add	r0,r0
8000221e:	00 f8       	st.b	--r0,r8

80002220 <sd_mmc_spi_read_close>:
80002220:	d4 01       	pushm	lr
80002222:	cd 3f       	rcall	800021c8 <sd_mmc_spi_wait_not_busy>
80002224:	d8 02       	popm	pc
80002226:	d7 03       	nop

80002228 <sd_mmc_spi_read_open>:
80002228:	d4 01       	pushm	lr
8000222a:	48 38       	lddpc	r8,80002234 <sd_mmc_spi_read_open+0xc>
8000222c:	a9 7c       	lsl	r12,0x9
8000222e:	91 0c       	st.w	r8[0x0],r12
80002230:	cc cf       	rcall	800021c8 <sd_mmc_spi_wait_not_busy>
80002232:	d8 02       	popm	pc
80002234:	00 00       	add	r0,r0
80002236:	00 f8       	st.b	--r0,r8

80002238 <sd_mmc_spi_command>:
80002238:	d4 21       	pushm	r4-r7,lr
8000223a:	16 97       	mov	r7,r11
8000223c:	18 96       	mov	r6,r12
8000223e:	e0 6b 00 ff 	mov	r11,255
80002242:	fe 7c 24 00 	mov	r12,-56320
80002246:	e0 a0 17 66 	rcall	80005112 <spi_write>
8000224a:	fe 7c 24 00 	mov	r12,-56320
8000224e:	0c 9b       	mov	r11,r6
80002250:	a7 ab       	sbr	r11,0x6
80002252:	5c 5b       	castu.b	r11
80002254:	e0 a0 17 5f 	rcall	80005112 <spi_write>
80002258:	ee 0b 16 18 	lsr	r11,r7,0x18
8000225c:	fe 7c 24 00 	mov	r12,-56320
80002260:	e0 a0 17 59 	rcall	80005112 <spi_write>
80002264:	ee 0b 16 10 	lsr	r11,r7,0x10
80002268:	fe 7c 24 00 	mov	r12,-56320
8000226c:	e0 a0 17 53 	rcall	80005112 <spi_write>
80002270:	f7 d7 c1 10 	bfextu	r11,r7,0x8,0x10
80002274:	fe 7c 24 00 	mov	r12,-56320
80002278:	e0 a0 17 4d 	rcall	80005112 <spi_write>
8000227c:	0e 9b       	mov	r11,r7
8000227e:	fe 7c 24 00 	mov	r12,-56320
80002282:	5c 7b       	castu.h	r11
80002284:	e0 a0 17 47 	rcall	80005112 <spi_write>
80002288:	30 08       	mov	r8,0
8000228a:	f0 06 18 00 	cp.b	r6,r8
8000228e:	c0 60       	breq	8000229a <sd_mmc_spi_command+0x62>
80002290:	30 88       	mov	r8,8
80002292:	f0 06 18 00 	cp.b	r6,r8
80002296:	c0 81       	brne	800022a6 <sd_mmc_spi_command+0x6e>
80002298:	c0 48       	rjmp	800022a0 <sd_mmc_spi_command+0x68>
8000229a:	e0 6b 00 95 	mov	r11,149
8000229e:	c0 68       	rjmp	800022aa <sd_mmc_spi_command+0x72>
800022a0:	e0 6b 00 87 	mov	r11,135
800022a4:	c0 38       	rjmp	800022aa <sd_mmc_spi_command+0x72>
800022a6:	e0 6b 00 ff 	mov	r11,255
800022aa:	fe 7c 24 00 	mov	r12,-56320
800022ae:	e0 a0 17 32 	rcall	80005112 <spi_write>
800022b2:	48 b8       	lddpc	r8,800022dc <sd_mmc_spi_command+0xa4>
800022b4:	3f f5       	mov	r5,-1
800022b6:	10 94       	mov	r4,r8
800022b8:	b0 85       	st.b	r8[0x0],r5
800022ba:	30 07       	mov	r7,0
800022bc:	30 b6       	mov	r6,11
800022be:	c0 68       	rjmp	800022ca <sd_mmc_spi_command+0x92>
800022c0:	2f f7       	sub	r7,-1
800022c2:	5c 57       	castu.b	r7
800022c4:	ec 07 18 00 	cp.b	r7,r6
800022c8:	c0 80       	breq	800022d8 <sd_mmc_spi_command+0xa0>
800022ca:	e0 6c 00 ff 	mov	r12,255
800022ce:	c6 7f       	rcall	8000219c <sd_mmc_spi_send_and_read>
800022d0:	a8 8c       	st.b	r4[0x0],r12
800022d2:	ea 0c 18 00 	cp.b	r12,r5
800022d6:	cf 50       	breq	800022c0 <sd_mmc_spi_command+0x88>
800022d8:	d8 22       	popm	r4-r7,pc
800022da:	d7 03       	nop
800022dc:	00 00       	add	r0,r0
800022de:	06 a0       	st.w	r3++,r0

800022e0 <sd_mmc_spi_send_command>:
800022e0:	d4 21       	pushm	r4-r7,lr
800022e2:	18 97       	mov	r7,r12
800022e4:	16 96       	mov	r6,r11
800022e6:	fe 7c 24 00 	mov	r12,-56320
800022ea:	30 1b       	mov	r11,1
800022ec:	e0 a0 16 80 	rcall	80004fec <spi_selectChip>
800022f0:	0c 9b       	mov	r11,r6
800022f2:	0e 9c       	mov	r12,r7
800022f4:	ca 2f       	rcall	80002238 <sd_mmc_spi_command>
800022f6:	30 1b       	mov	r11,1
800022f8:	48 47       	lddpc	r7,80002308 <sd_mmc_spi_send_command+0x28>
800022fa:	ae 8c       	st.b	r7[0x0],r12
800022fc:	fe 7c 24 00 	mov	r12,-56320
80002300:	e0 a0 16 9e 	rcall	8000503c <spi_unselectChip>
80002304:	0f 8c       	ld.ub	r12,r7[0x0]
80002306:	d8 22       	popm	r4-r7,pc
80002308:	00 00       	add	r0,r0
8000230a:	06 a0       	st.w	r3++,r0

8000230c <sd_mmc_spi_check_presence>:
8000230c:	d4 21       	pushm	r4-r7,lr
8000230e:	49 57       	lddpc	r7,80002360 <sd_mmc_spi_check_presence+0x54>
80002310:	30 06       	mov	r6,0
80002312:	0f 88       	ld.ub	r8,r7[0x0]
80002314:	ec 08 18 00 	cp.b	r8,r6
80002318:	c1 91       	brne	8000234a <sd_mmc_spi_check_presence+0x3e>
8000231a:	30 07       	mov	r7,0
8000231c:	49 24       	lddpc	r4,80002364 <sd_mmc_spi_check_presence+0x58>
8000231e:	30 15       	mov	r5,1
80002320:	30 b6       	mov	r6,11
80002322:	c0 c8       	rjmp	8000233a <sd_mmc_spi_check_presence+0x2e>
80002324:	e0 6b 00 ff 	mov	r11,255
80002328:	fe 7c 24 00 	mov	r12,-56320
8000232c:	e0 a0 16 f3 	rcall	80005112 <spi_write>
80002330:	2f f7       	sub	r7,-1
80002332:	5c 87       	casts.h	r7
80002334:	ec 07 19 00 	cp.h	r7,r6
80002338:	c1 10       	breq	8000235a <sd_mmc_spi_check_presence+0x4e>
8000233a:	30 0b       	mov	r11,0
8000233c:	16 9c       	mov	r12,r11
8000233e:	cd 1f       	rcall	800022e0 <sd_mmc_spi_send_command>
80002340:	a8 8c       	st.b	r4[0x0],r12
80002342:	ea 0c 18 00 	cp.b	r12,r5
80002346:	ce f1       	brne	80002324 <sd_mmc_spi_check_presence+0x18>
80002348:	c0 a8       	rjmp	8000235c <sd_mmc_spi_check_presence+0x50>
8000234a:	30 0b       	mov	r11,0
8000234c:	33 bc       	mov	r12,59
8000234e:	cc 9f       	rcall	800022e0 <sd_mmc_spi_send_command>
80002350:	48 58       	lddpc	r8,80002364 <sd_mmc_spi_check_presence+0x58>
80002352:	b0 8c       	st.b	r8[0x0],r12
80002354:	58 0c       	cp.w	r12,0
80002356:	c0 30       	breq	8000235c <sd_mmc_spi_check_presence+0x50>
80002358:	ae 86       	st.b	r7[0x0],r6
8000235a:	d8 2a       	popm	r4-r7,pc,r12=0
8000235c:	da 2a       	popm	r4-r7,pc,r12=1
8000235e:	d7 03       	nop
80002360:	00 00       	add	r0,r0
80002362:	03 10       	ld.sh	r0,r1++
80002364:	00 00       	add	r0,r0
80002366:	06 a0       	st.w	r3++,r0

80002368 <sd_mmc_spi_write_sector_from_ram>:
80002368:	d4 21       	pushm	r4-r7,lr
8000236a:	18 97       	mov	r7,r12
8000236c:	c2 ef       	rcall	800021c8 <sd_mmc_spi_wait_not_busy>
8000236e:	c7 80       	breq	8000245e <sd_mmc_spi_write_sector_from_ram+0xf6>
80002370:	30 1b       	mov	r11,1
80002372:	fe 7c 24 00 	mov	r12,-56320
80002376:	e0 a0 16 3b 	rcall	80004fec <spi_selectChip>
8000237a:	4b a8       	lddpc	r8,80002460 <sd_mmc_spi_write_sector_from_ram+0xf8>
8000237c:	4b a6       	lddpc	r6,80002464 <sd_mmc_spi_write_sector_from_ram+0xfc>
8000237e:	11 8a       	ld.ub	r10,r8[0x0]
80002380:	30 39       	mov	r9,3
80002382:	4b a8       	lddpc	r8,80002468 <sd_mmc_spi_write_sector_from_ram+0x100>
80002384:	f2 0a 18 00 	cp.b	r10,r9
80002388:	c0 41       	brne	80002390 <sd_mmc_spi_write_sector_from_ram+0x28>
8000238a:	70 0b       	ld.w	r11,r8[0x0]
8000238c:	a9 9b       	lsr	r11,0x9
8000238e:	c0 28       	rjmp	80002392 <sd_mmc_spi_write_sector_from_ram+0x2a>
80002390:	70 0b       	ld.w	r11,r8[0x0]
80002392:	31 8c       	mov	r12,24
80002394:	c5 2f       	rcall	80002238 <sd_mmc_spi_command>
80002396:	4b 48       	lddpc	r8,80002464 <sd_mmc_spi_write_sector_from_ram+0xfc>
80002398:	ac 8c       	st.b	r6[0x0],r12
8000239a:	11 89       	ld.ub	r9,r8[0x0]
8000239c:	30 08       	mov	r8,0
8000239e:	f0 09 18 00 	cp.b	r9,r8
800023a2:	c3 71       	brne	80002410 <sd_mmc_spi_write_sector_from_ram+0xa8>
800023a4:	e0 6b 00 ff 	mov	r11,255
800023a8:	fe 7c 24 00 	mov	r12,-56320
800023ac:	e0 a0 16 b3 	rcall	80005112 <spi_write>
800023b0:	e0 6b 00 fe 	mov	r11,254
800023b4:	fe 7c 24 00 	mov	r12,-56320
800023b8:	ee c6 fe 00 	sub	r6,r7,-512
800023bc:	e0 a0 16 ab 	rcall	80005112 <spi_write>
800023c0:	0f 3b       	ld.ub	r11,r7++
800023c2:	fe 7c 24 00 	mov	r12,-56320
800023c6:	e0 a0 16 a6 	rcall	80005112 <spi_write>
800023ca:	0c 37       	cp.w	r7,r6
800023cc:	cf a1       	brne	800023c0 <sd_mmc_spi_write_sector_from_ram+0x58>
800023ce:	e0 6b 00 ff 	mov	r11,255
800023d2:	fe 7c 24 00 	mov	r12,-56320
800023d6:	e0 a0 16 9e 	rcall	80005112 <spi_write>
800023da:	e0 6b 00 ff 	mov	r11,255
800023de:	fe 7c 24 00 	mov	r12,-56320
800023e2:	e0 a0 16 98 	rcall	80005112 <spi_write>
800023e6:	e0 6c 00 ff 	mov	r12,255
800023ea:	cd 9e       	rcall	8000219c <sd_mmc_spi_send_and_read>
800023ec:	49 e8       	lddpc	r8,80002464 <sd_mmc_spi_write_sector_from_ram+0xfc>
800023ee:	b0 8c       	st.b	r8[0x0],r12
800023f0:	f9 dc c0 05 	bfextu	r12,r12,0x0,0x5
800023f4:	58 5c       	cp.w	r12,5
800023f6:	c1 30       	breq	8000241c <sd_mmc_spi_write_sector_from_ram+0xb4>
800023f8:	e0 6b 00 ff 	mov	r11,255
800023fc:	fe 7c 24 00 	mov	r12,-56320
80002400:	e0 a0 16 89 	rcall	80005112 <spi_write>
80002404:	e0 6b 00 ff 	mov	r11,255
80002408:	fe 7c 24 00 	mov	r12,-56320
8000240c:	e0 a0 16 83 	rcall	80005112 <spi_write>
80002410:	30 1b       	mov	r11,1
80002412:	fe 7c 24 00 	mov	r12,-56320
80002416:	e0 a0 16 13 	rcall	8000503c <spi_unselectChip>
8000241a:	d8 2a       	popm	r4-r7,pc,r12=0
8000241c:	e0 6b 00 ff 	mov	r11,255
80002420:	fe 7c 24 00 	mov	r12,-56320
80002424:	e0 a0 16 77 	rcall	80005112 <spi_write>
80002428:	e0 6b 00 ff 	mov	r11,255
8000242c:	fe 7c 24 00 	mov	r12,-56320
80002430:	e0 a0 16 71 	rcall	80005112 <spi_write>
80002434:	30 1b       	mov	r11,1
80002436:	fe 7c 24 00 	mov	r12,-56320
8000243a:	e0 a0 16 01 	rcall	8000503c <spi_unselectChip>
8000243e:	48 b8       	lddpc	r8,80002468 <sd_mmc_spi_write_sector_from_ram+0x100>
80002440:	30 07       	mov	r7,0
80002442:	70 09       	ld.w	r9,r8[0x0]
80002444:	30 a6       	mov	r6,10
80002446:	f2 c9 fe 00 	sub	r9,r9,-512
8000244a:	91 09       	st.w	r8[0x0],r9
8000244c:	c0 68       	rjmp	80002458 <sd_mmc_spi_write_sector_from_ram+0xf0>
8000244e:	2f f7       	sub	r7,-1
80002450:	5c 87       	casts.h	r7
80002452:	ec 07 19 00 	cp.h	r7,r6
80002456:	c0 40       	breq	8000245e <sd_mmc_spi_write_sector_from_ram+0xf6>
80002458:	cb 8e       	rcall	800021c8 <sd_mmc_spi_wait_not_busy>
8000245a:	cf a0       	breq	8000244e <sd_mmc_spi_write_sector_from_ram+0xe6>
8000245c:	da 2a       	popm	r4-r7,pc,r12=1
8000245e:	d8 2a       	popm	r4-r7,pc,r12=0
80002460:	00 00       	add	r0,r0
80002462:	06 8e       	andn	lr,r3
80002464:	00 00       	add	r0,r0
80002466:	06 a0       	st.w	r3++,r0
80002468:	00 00       	add	r0,r0
8000246a:	00 f8       	st.b	--r0,r8

8000246c <sd_mmc_spi_check_hc>:
8000246c:	d4 21       	pushm	r4-r7,lr
8000246e:	ca de       	rcall	800021c8 <sd_mmc_spi_wait_not_busy>
80002470:	c1 10       	breq	80002492 <sd_mmc_spi_check_hc+0x26>
80002472:	30 1b       	mov	r11,1
80002474:	fe 7c 24 00 	mov	r12,-56320
80002478:	e0 a0 15 ba 	rcall	80004fec <spi_selectChip>
8000247c:	30 0b       	mov	r11,0
8000247e:	49 27       	lddpc	r7,800024c4 <sd_mmc_spi_check_hc+0x58>
80002480:	33 ac       	mov	r12,58
80002482:	cd be       	rcall	80002238 <sd_mmc_spi_command>
80002484:	ae 8c       	st.b	r7[0x0],r12
80002486:	c0 70       	breq	80002494 <sd_mmc_spi_check_hc+0x28>
80002488:	30 1b       	mov	r11,1
8000248a:	fe 7c 24 00 	mov	r12,-56320
8000248e:	e0 a0 15 d7 	rcall	8000503c <spi_unselectChip>
80002492:	dc 2a       	popm	r4-r7,pc,r12=-1
80002494:	e0 6c 00 ff 	mov	r12,255
80002498:	c8 2e       	rcall	8000219c <sd_mmc_spi_send_and_read>
8000249a:	18 96       	mov	r6,r12
8000249c:	e0 6c 00 ff 	mov	r12,255
800024a0:	c7 ee       	rcall	8000219c <sd_mmc_spi_send_and_read>
800024a2:	ae 8c       	st.b	r7[0x0],r12
800024a4:	e0 6c 00 ff 	mov	r12,255
800024a8:	c7 ae       	rcall	8000219c <sd_mmc_spi_send_and_read>
800024aa:	ae 8c       	st.b	r7[0x0],r12
800024ac:	e0 6c 00 ff 	mov	r12,255
800024b0:	c7 6e       	rcall	8000219c <sd_mmc_spi_send_and_read>
800024b2:	30 1b       	mov	r11,1
800024b4:	ae 8c       	st.b	r7[0x0],r12
800024b6:	fe 7c 24 00 	mov	r12,-56320
800024ba:	e0 a0 15 c1 	rcall	8000503c <spi_unselectChip>
800024be:	f9 d6 c0 c1 	bfextu	r12,r6,0x6,0x1
800024c2:	d8 22       	popm	r4-r7,pc
800024c4:	00 00       	add	r0,r0
800024c6:	06 a0       	st.w	r3++,r0

800024c8 <sd_mmc_spi_get_if>:
800024c8:	d4 21       	pushm	r4-r7,lr
800024ca:	c7 fe       	rcall	800021c8 <sd_mmc_spi_wait_not_busy>
800024cc:	c3 10       	breq	8000252e <sd_mmc_spi_get_if+0x66>
800024ce:	30 1b       	mov	r11,1
800024d0:	fe 7c 24 00 	mov	r12,-56320
800024d4:	e0 a0 15 8c 	rcall	80004fec <spi_selectChip>
800024d8:	e0 6b 01 aa 	mov	r11,426
800024dc:	49 87       	lddpc	r7,8000253c <sd_mmc_spi_get_if+0x74>
800024de:	30 8c       	mov	r12,8
800024e0:	ca ce       	rcall	80002238 <sd_mmc_spi_command>
800024e2:	ae 8c       	st.b	r7[0x0],r12
800024e4:	ed bc 00 02 	bld	r12,0x2
800024e8:	c0 71       	brne	800024f6 <sd_mmc_spi_get_if+0x2e>
800024ea:	30 1b       	mov	r11,1
800024ec:	fe 7c 24 00 	mov	r12,-56320
800024f0:	e0 a0 15 a6 	rcall	8000503c <spi_unselectChip>
800024f4:	d8 2a       	popm	r4-r7,pc,r12=0
800024f6:	e0 6c 00 ff 	mov	r12,255
800024fa:	c5 1e       	rcall	8000219c <sd_mmc_spi_send_and_read>
800024fc:	ae 8c       	st.b	r7[0x0],r12
800024fe:	e0 6c 00 ff 	mov	r12,255
80002502:	c4 de       	rcall	8000219c <sd_mmc_spi_send_and_read>
80002504:	ae 8c       	st.b	r7[0x0],r12
80002506:	e0 6c 00 ff 	mov	r12,255
8000250a:	c4 9e       	rcall	8000219c <sd_mmc_spi_send_and_read>
8000250c:	ae 8c       	st.b	r7[0x0],r12
8000250e:	ed bc 00 00 	bld	r12,0x0
80002512:	c0 91       	brne	80002524 <sd_mmc_spi_get_if+0x5c>
80002514:	e0 6c 00 ff 	mov	r12,255
80002518:	c4 2e       	rcall	8000219c <sd_mmc_spi_send_and_read>
8000251a:	ae 8c       	st.b	r7[0x0],r12
8000251c:	3a a8       	mov	r8,-86
8000251e:	f0 0c 18 00 	cp.b	r12,r8
80002522:	c0 70       	breq	80002530 <sd_mmc_spi_get_if+0x68>
80002524:	30 1b       	mov	r11,1
80002526:	fe 7c 24 00 	mov	r12,-56320
8000252a:	e0 a0 15 89 	rcall	8000503c <spi_unselectChip>
8000252e:	dc 2a       	popm	r4-r7,pc,r12=-1
80002530:	30 1b       	mov	r11,1
80002532:	fe 7c 24 00 	mov	r12,-56320
80002536:	e0 a0 15 83 	rcall	8000503c <spi_unselectChip>
8000253a:	da 2a       	popm	r4-r7,pc,r12=1
8000253c:	00 00       	add	r0,r0
8000253e:	06 a0       	st.w	r3++,r0

80002540 <sd_mmc_spi_read_sector_to_ram>:
80002540:	d4 21       	pushm	r4-r7,lr
80002542:	20 1d       	sub	sp,4
80002544:	18 97       	mov	r7,r12
80002546:	c4 1e       	rcall	800021c8 <sd_mmc_spi_wait_not_busy>
80002548:	c7 80       	breq	80002638 <sd_mmc_spi_read_sector_to_ram+0xf8>
8000254a:	30 1b       	mov	r11,1
8000254c:	fe 7c 24 00 	mov	r12,-56320
80002550:	e0 a0 15 4e 	rcall	80004fec <spi_selectChip>
80002554:	4b a8       	lddpc	r8,8000263c <sd_mmc_spi_read_sector_to_ram+0xfc>
80002556:	4b b6       	lddpc	r6,80002640 <sd_mmc_spi_read_sector_to_ram+0x100>
80002558:	11 8a       	ld.ub	r10,r8[0x0]
8000255a:	30 39       	mov	r9,3
8000255c:	4b a8       	lddpc	r8,80002644 <sd_mmc_spi_read_sector_to_ram+0x104>
8000255e:	f2 0a 18 00 	cp.b	r10,r9
80002562:	c0 41       	brne	8000256a <sd_mmc_spi_read_sector_to_ram+0x2a>
80002564:	70 0b       	ld.w	r11,r8[0x0]
80002566:	a9 9b       	lsr	r11,0x9
80002568:	c0 28       	rjmp	8000256c <sd_mmc_spi_read_sector_to_ram+0x2c>
8000256a:	70 0b       	ld.w	r11,r8[0x0]
8000256c:	31 1c       	mov	r12,17
8000256e:	c6 5e       	rcall	80002238 <sd_mmc_spi_command>
80002570:	ac 8c       	st.b	r6[0x0],r12
80002572:	4b 44       	lddpc	r4,80002640 <sd_mmc_spi_read_sector_to_ram+0x100>
80002574:	30 08       	mov	r8,0
80002576:	09 89       	ld.ub	r9,r4[0x0]
80002578:	f0 09 18 00 	cp.b	r9,r8
8000257c:	c0 c0       	breq	80002594 <sd_mmc_spi_read_sector_to_ram+0x54>
8000257e:	c2 08       	rjmp	800025be <sd_mmc_spi_read_sector_to_ram+0x7e>
80002580:	20 16       	sub	r6,1
80002582:	5c 86       	casts.h	r6
80002584:	c0 b1       	brne	8000259a <sd_mmc_spi_read_sector_to_ram+0x5a>
80002586:	30 1b       	mov	r11,1
80002588:	fe 7c 24 00 	mov	r12,-56320
8000258c:	e0 a0 15 58 	rcall	8000503c <spi_unselectChip>
80002590:	0c 9c       	mov	r12,r6
80002592:	c5 38       	rjmp	80002638 <sd_mmc_spi_read_sector_to_ram+0xf8>
80002594:	e0 66 75 30 	mov	r6,30000
80002598:	3f f5       	mov	r5,-1
8000259a:	e0 6c 00 ff 	mov	r12,255
8000259e:	fe b0 fd ff 	rcall	8000219c <sd_mmc_spi_send_and_read>
800025a2:	a8 8c       	st.b	r4[0x0],r12
800025a4:	ea 0c 18 00 	cp.b	r12,r5
800025a8:	ce c0       	breq	80002580 <sd_mmc_spi_read_sector_to_ram+0x40>
800025aa:	3f e8       	mov	r8,-2
800025ac:	f0 0c 18 00 	cp.b	r12,r8
800025b0:	c0 e0       	breq	800025cc <sd_mmc_spi_read_sector_to_ram+0x8c>
800025b2:	e0 6b 00 ff 	mov	r11,255
800025b6:	fe 7c 24 00 	mov	r12,-56320
800025ba:	e0 a0 15 ac 	rcall	80005112 <spi_write>
800025be:	30 1b       	mov	r11,1
800025c0:	fe 7c 24 00 	mov	r12,-56320
800025c4:	e0 a0 15 3c 	rcall	8000503c <spi_unselectChip>
800025c8:	30 0c       	mov	r12,0
800025ca:	c3 78       	rjmp	80002638 <sd_mmc_spi_read_sector_to_ram+0xf8>
800025cc:	fa c5 ff fe 	sub	r5,sp,-2
800025d0:	ee c6 fe 00 	sub	r6,r7,-512
800025d4:	e0 6b 00 ff 	mov	r11,255
800025d8:	fe 7c 24 00 	mov	r12,-56320
800025dc:	e0 a0 15 9b 	rcall	80005112 <spi_write>
800025e0:	0a 9b       	mov	r11,r5
800025e2:	fe 7c 24 00 	mov	r12,-56320
800025e6:	e0 a0 15 a4 	rcall	8000512e <spi_read>
800025ea:	9a 18       	ld.sh	r8,sp[0x2]
800025ec:	0e c8       	st.b	r7++,r8
800025ee:	0c 37       	cp.w	r7,r6
800025f0:	cf 21       	brne	800025d4 <sd_mmc_spi_read_sector_to_ram+0x94>
800025f2:	49 58       	lddpc	r8,80002644 <sd_mmc_spi_read_sector_to_ram+0x104>
800025f4:	70 09       	ld.w	r9,r8[0x0]
800025f6:	f2 c9 fe 00 	sub	r9,r9,-512
800025fa:	e0 6b 00 ff 	mov	r11,255
800025fe:	91 09       	st.w	r8[0x0],r9
80002600:	fe 7c 24 00 	mov	r12,-56320
80002604:	e0 a0 15 87 	rcall	80005112 <spi_write>
80002608:	e0 6b 00 ff 	mov	r11,255
8000260c:	fe 7c 24 00 	mov	r12,-56320
80002610:	e0 a0 15 81 	rcall	80005112 <spi_write>
80002614:	e0 6b 00 ff 	mov	r11,255
80002618:	fe 7c 24 00 	mov	r12,-56320
8000261c:	e0 a0 15 7b 	rcall	80005112 <spi_write>
80002620:	e0 6b 00 ff 	mov	r11,255
80002624:	fe 7c 24 00 	mov	r12,-56320
80002628:	e0 a0 15 75 	rcall	80005112 <spi_write>
8000262c:	30 1b       	mov	r11,1
8000262e:	fe 7c 24 00 	mov	r12,-56320
80002632:	e0 a0 15 05 	rcall	8000503c <spi_unselectChip>
80002636:	30 1c       	mov	r12,1
80002638:	2f fd       	sub	sp,-4
8000263a:	d8 22       	popm	r4-r7,pc
8000263c:	00 00       	add	r0,r0
8000263e:	06 8e       	andn	lr,r3
80002640:	00 00       	add	r0,r0
80002642:	06 a0       	st.w	r3++,r0
80002644:	00 00       	add	r0,r0
80002646:	00 f8       	st.b	--r0,r8

80002648 <sd_mmc_spi_get_csd>:
80002648:	d4 31       	pushm	r0-r7,lr
8000264a:	20 1d       	sub	sp,4
8000264c:	18 95       	mov	r5,r12
8000264e:	fe b0 fd bd 	rcall	800021c8 <sd_mmc_spi_wait_not_busy>
80002652:	c5 a0       	breq	80002706 <sd_mmc_spi_get_csd+0xbe>
80002654:	30 1b       	mov	r11,1
80002656:	fe 7c 24 00 	mov	r12,-56320
8000265a:	e0 a0 14 c9 	rcall	80004fec <spi_selectChip>
8000265e:	30 0b       	mov	r11,0
80002660:	30 9c       	mov	r12,9
80002662:	4a b3       	lddpc	r3,8000270c <sd_mmc_spi_get_csd+0xc4>
80002664:	fe b0 fd ea 	rcall	80002238 <sd_mmc_spi_command>
80002668:	a6 8c       	st.b	r3[0x0],r12
8000266a:	c0 51       	brne	80002674 <sd_mmc_spi_get_csd+0x2c>
8000266c:	18 97       	mov	r7,r12
8000266e:	3f e4       	mov	r4,-2
80002670:	30 96       	mov	r6,9
80002672:	c1 68       	rjmp	8000269e <sd_mmc_spi_get_csd+0x56>
80002674:	30 1b       	mov	r11,1
80002676:	fe 7c 24 00 	mov	r12,-56320
8000267a:	e0 a0 14 e1 	rcall	8000503c <spi_unselectChip>
8000267e:	30 09       	mov	r9,0
80002680:	4a 48       	lddpc	r8,80002710 <sd_mmc_spi_get_csd+0xc8>
80002682:	b0 89       	st.b	r8[0x0],r9
80002684:	c0 98       	rjmp	80002696 <sd_mmc_spi_get_csd+0x4e>
80002686:	ec 07 18 00 	cp.b	r7,r6
8000268a:	c0 81       	brne	8000269a <sd_mmc_spi_get_csd+0x52>
8000268c:	30 1b       	mov	r11,1
8000268e:	fe 7c 24 00 	mov	r12,-56320
80002692:	e0 a0 14 d5 	rcall	8000503c <spi_unselectChip>
80002696:	30 0c       	mov	r12,0
80002698:	c3 78       	rjmp	80002706 <sd_mmc_spi_get_csd+0xbe>
8000269a:	2f f7       	sub	r7,-1
8000269c:	5c 57       	castu.b	r7
8000269e:	e0 6c 00 ff 	mov	r12,255
800026a2:	fe b0 fd 7d 	rcall	8000219c <sd_mmc_spi_send_and_read>
800026a6:	a6 8c       	st.b	r3[0x0],r12
800026a8:	e8 0c 18 00 	cp.b	r12,r4
800026ac:	ce d1       	brne	80002686 <sd_mmc_spi_get_csd+0x3e>
800026ae:	30 07       	mov	r7,0
800026b0:	fa c6 ff fe 	sub	r6,sp,-2
800026b4:	e0 6b 00 ff 	mov	r11,255
800026b8:	fe 7c 24 00 	mov	r12,-56320
800026bc:	e0 a0 15 2b 	rcall	80005112 <spi_write>
800026c0:	0c 9b       	mov	r11,r6
800026c2:	fe 7c 24 00 	mov	r12,-56320
800026c6:	e0 a0 15 34 	rcall	8000512e <spi_read>
800026ca:	9a 18       	ld.sh	r8,sp[0x2]
800026cc:	ea 07 0b 08 	st.b	r5[r7],r8
800026d0:	2f f7       	sub	r7,-1
800026d2:	59 07       	cp.w	r7,16
800026d4:	cf 01       	brne	800026b4 <sd_mmc_spi_get_csd+0x6c>
800026d6:	e0 6b 00 ff 	mov	r11,255
800026da:	fe 7c 24 00 	mov	r12,-56320
800026de:	e0 a0 15 1a 	rcall	80005112 <spi_write>
800026e2:	e0 6b 00 ff 	mov	r11,255
800026e6:	fe 7c 24 00 	mov	r12,-56320
800026ea:	e0 a0 15 14 	rcall	80005112 <spi_write>
800026ee:	e0 6b 00 ff 	mov	r11,255
800026f2:	fe 7c 24 00 	mov	r12,-56320
800026f6:	e0 a0 15 0e 	rcall	80005112 <spi_write>
800026fa:	30 1b       	mov	r11,1
800026fc:	fe 7c 24 00 	mov	r12,-56320
80002700:	e0 a0 14 9e 	rcall	8000503c <spi_unselectChip>
80002704:	30 1c       	mov	r12,1
80002706:	2f fd       	sub	sp,-4
80002708:	d8 32       	popm	r0-r7,pc
8000270a:	d7 03       	nop
8000270c:	00 00       	add	r0,r0
8000270e:	06 a0       	st.w	r3++,r0
80002710:	00 00       	add	r0,r0
80002712:	03 10       	ld.sh	r0,r1++

80002714 <sd_mmc_spi_write_multiple_sector>:
80002714:	d4 21       	pushm	r4-r7,lr
80002716:	18 97       	mov	r7,r12
80002718:	c0 78       	rjmp	80002726 <sd_mmc_spi_write_multiple_sector+0x12>
8000271a:	e0 a0 12 0d 	rcall	80004b34 <sd_mmc_spi_write_multiple_sector_callback>
8000271e:	48 5c       	lddpc	r12,80002730 <sd_mmc_spi_write_multiple_sector+0x1c>
80002720:	c2 4e       	rcall	80002368 <sd_mmc_spi_write_sector_from_ram>
80002722:	20 17       	sub	r7,1
80002724:	5c 87       	casts.h	r7
80002726:	48 3c       	lddpc	r12,80002730 <sd_mmc_spi_write_multiple_sector+0x1c>
80002728:	58 07       	cp.w	r7,0
8000272a:	cf 81       	brne	8000271a <sd_mmc_spi_write_multiple_sector+0x6>
8000272c:	da 2a       	popm	r4-r7,pc,r12=1
8000272e:	d7 03       	nop
80002730:	00 00       	add	r0,r0
80002732:	00 fc       	st.b	--r0,r12

80002734 <sd_mmc_spi_read_multiple_sector>:
80002734:	d4 21       	pushm	r4-r7,lr
80002736:	18 97       	mov	r7,r12
80002738:	c0 78       	rjmp	80002746 <sd_mmc_spi_read_multiple_sector+0x12>
8000273a:	c0 3f       	rcall	80002540 <sd_mmc_spi_read_sector_to_ram>
8000273c:	48 5c       	lddpc	r12,80002750 <sd_mmc_spi_read_multiple_sector+0x1c>
8000273e:	e0 a0 12 05 	rcall	80004b48 <sd_mmc_spi_read_multiple_sector_callback>
80002742:	20 17       	sub	r7,1
80002744:	5c 87       	casts.h	r7
80002746:	48 3c       	lddpc	r12,80002750 <sd_mmc_spi_read_multiple_sector+0x1c>
80002748:	58 07       	cp.w	r7,0
8000274a:	cf 81       	brne	8000273a <sd_mmc_spi_read_multiple_sector+0x6>
8000274c:	da 2a       	popm	r4-r7,pc,r12=1
8000274e:	d7 03       	nop
80002750:	00 00       	add	r0,r0
80002752:	00 fc       	st.b	--r0,r12

80002754 <sd_mmc_spi_internal_init>:
80002754:	d4 31       	pushm	r0-r7,lr
80002756:	4c 88       	lddpc	r8,80002874 <sd_mmc_spi_internal_init+0x120>
80002758:	e6 69 1a 80 	mov	r9,400000
8000275c:	10 9b       	mov	r11,r8
8000275e:	91 19       	st.w	r8[0x4],r9
80002760:	4c 68       	lddpc	r8,80002878 <sd_mmc_spi_internal_init+0x124>
80002762:	fe 7c 24 00 	mov	r12,-56320
80002766:	70 0a       	ld.w	r10,r8[0x0]
80002768:	e0 a0 14 7e 	rcall	80005064 <spi_setupChipReg>
8000276c:	30 1b       	mov	r11,1
8000276e:	fe 7c 24 00 	mov	r12,-56320
80002772:	e0 a0 14 3d 	rcall	80004fec <spi_selectChip>
80002776:	30 07       	mov	r7,0
80002778:	2f f7       	sub	r7,-1
8000277a:	e0 6b 00 ff 	mov	r11,255
8000277e:	fe 7c 24 00 	mov	r12,-56320
80002782:	e0 a0 14 c8 	rcall	80005112 <spi_write>
80002786:	58 a7       	cp.w	r7,10
80002788:	cf 81       	brne	80002778 <sd_mmc_spi_internal_init+0x24>
8000278a:	30 1b       	mov	r11,1
8000278c:	fe 7c 24 00 	mov	r12,-56320
80002790:	e0 a0 14 56 	rcall	8000503c <spi_unselectChip>
80002794:	4b a9       	lddpc	r9,8000287c <sd_mmc_spi_internal_init+0x128>
80002796:	30 08       	mov	r8,0
80002798:	30 06       	mov	r6,0
8000279a:	b2 88       	st.b	r9[0x0],r8
8000279c:	4b 94       	lddpc	r4,80002880 <sd_mmc_spi_internal_init+0x12c>
8000279e:	4b a9       	lddpc	r9,80002884 <sd_mmc_spi_internal_init+0x130>
800027a0:	36 52       	mov	r2,101
800027a2:	b2 88       	st.b	r9[0x0],r8
800027a4:	30 13       	mov	r3,1
800027a6:	30 0b       	mov	r11,0
800027a8:	16 9c       	mov	r12,r11
800027aa:	fe b0 fd 9b 	rcall	800022e0 <sd_mmc_spi_send_command>
800027ae:	e0 6b 00 ff 	mov	r11,255
800027b2:	a8 8c       	st.b	r4[0x0],r12
800027b4:	2f f6       	sub	r6,-1
800027b6:	fe 7c 24 00 	mov	r12,-56320
800027ba:	5c 86       	casts.h	r6
800027bc:	e0 a0 14 ab 	rcall	80005112 <spi_write>
800027c0:	4b 07       	lddpc	r7,80002880 <sd_mmc_spi_internal_init+0x12c>
800027c2:	e4 06 19 00 	cp.h	r6,r2
800027c6:	e0 80 00 c5 	breq	80002950 <sd_mmc_spi_internal_init+0x1fc>
800027ca:	09 85       	ld.ub	r5,r4[0x0]
800027cc:	e6 05 18 00 	cp.b	r5,r3
800027d0:	ce b1       	brne	800027a6 <sd_mmc_spi_internal_init+0x52>
800027d2:	c7 be       	rcall	800024c8 <sd_mmc_spi_get_if>
800027d4:	5b fc       	cp.w	r12,-1
800027d6:	e0 80 00 bd 	breq	80002950 <sd_mmc_spi_internal_init+0x1fc>
800027da:	58 1c       	cp.w	r12,1
800027dc:	c0 51       	brne	800027e6 <sd_mmc_spi_internal_init+0x92>
800027de:	30 29       	mov	r9,2
800027e0:	4a 98       	lddpc	r8,80002884 <sd_mmc_spi_internal_init+0x130>
800027e2:	b0 89       	st.b	r8[0x0],r9
800027e4:	c3 88       	rjmp	80002854 <sd_mmc_spi_internal_init+0x100>
800027e6:	30 0b       	mov	r11,0
800027e8:	33 7c       	mov	r12,55
800027ea:	fe b0 fd 7b 	rcall	800022e0 <sd_mmc_spi_send_command>
800027ee:	e0 6b 00 ff 	mov	r11,255
800027f2:	ae 8c       	st.b	r7[0x0],r12
800027f4:	fe 7c 24 00 	mov	r12,-56320
800027f8:	e0 a0 14 8d 	rcall	80005112 <spi_write>
800027fc:	30 0b       	mov	r11,0
800027fe:	32 9c       	mov	r12,41
80002800:	fe b0 fd 70 	rcall	800022e0 <sd_mmc_spi_send_command>
80002804:	e0 6b 00 ff 	mov	r11,255
80002808:	ae 8c       	st.b	r7[0x0],r12
8000280a:	fe 7c 24 00 	mov	r12,-56320
8000280e:	e0 a0 14 82 	rcall	80005112 <spi_write>
80002812:	0f 88       	ld.ub	r8,r7[0x0]
80002814:	49 c9       	lddpc	r9,80002884 <sd_mmc_spi_internal_init+0x130>
80002816:	e2 18 00 fe 	andl	r8,0xfe,COH
8000281a:	c0 31       	brne	80002820 <sd_mmc_spi_internal_init+0xcc>
8000281c:	b2 85       	st.b	r9[0x0],r5
8000281e:	c1 b8       	rjmp	80002854 <sd_mmc_spi_internal_init+0x100>
80002820:	30 08       	mov	r8,0
80002822:	30 06       	mov	r6,0
80002824:	b2 88       	st.b	r9[0x0],r8
80002826:	36 54       	mov	r4,101
80002828:	30 15       	mov	r5,1
8000282a:	30 0b       	mov	r11,0
8000282c:	16 9c       	mov	r12,r11
8000282e:	fe b0 fd 59 	rcall	800022e0 <sd_mmc_spi_send_command>
80002832:	e0 6b 00 ff 	mov	r11,255
80002836:	ae 8c       	st.b	r7[0x0],r12
80002838:	2f f6       	sub	r6,-1
8000283a:	fe 7c 24 00 	mov	r12,-56320
8000283e:	5c 86       	casts.h	r6
80002840:	e0 a0 14 69 	rcall	80005112 <spi_write>
80002844:	e8 06 19 00 	cp.h	r6,r4
80002848:	e0 80 00 84 	breq	80002950 <sd_mmc_spi_internal_init+0x1fc>
8000284c:	0f 88       	ld.ub	r8,r7[0x0]
8000284e:	ea 08 18 00 	cp.b	r8,r5
80002852:	ce c1       	brne	8000282a <sd_mmc_spi_internal_init+0xd6>
80002854:	30 06       	mov	r6,0
80002856:	48 c4       	lddpc	r4,80002884 <sd_mmc_spi_internal_init+0x130>
80002858:	30 15       	mov	r5,1
8000285a:	48 a7       	lddpc	r7,80002880 <sd_mmc_spi_internal_init+0x12c>
8000285c:	09 88       	ld.ub	r8,r4[0x0]
8000285e:	ea 08 18 00 	cp.b	r8,r5
80002862:	c1 30       	breq	80002888 <sd_mmc_spi_internal_init+0x134>
80002864:	30 0b       	mov	r11,0
80002866:	30 1c       	mov	r12,1
80002868:	c1 e3       	brcs	800028a4 <sd_mmc_spi_internal_init+0x150>
8000286a:	30 29       	mov	r9,2
8000286c:	f2 08 18 00 	cp.b	r8,r9
80002870:	c2 31       	brne	800028b6 <sd_mmc_spi_internal_init+0x162>
80002872:	c1 18       	rjmp	80002894 <sd_mmc_spi_internal_init+0x140>
80002874:	00 00       	add	r0,r0
80002876:	02 fc       	st.b	--r1,r12
80002878:	00 00       	add	r0,r0
8000287a:	03 0c       	ld.w	r12,r1++
8000287c:	00 00       	add	r0,r0
8000287e:	03 10       	ld.sh	r0,r1++
80002880:	00 00       	add	r0,r0
80002882:	06 a0       	st.w	r3++,r0
80002884:	00 00       	add	r0,r0
80002886:	06 8e       	andn	lr,r3
80002888:	30 0b       	mov	r11,0
8000288a:	33 7c       	mov	r12,55
8000288c:	fe b0 fd 2a 	rcall	800022e0 <sd_mmc_spi_send_command>
80002890:	30 0b       	mov	r11,0
80002892:	c0 88       	rjmp	800028a2 <sd_mmc_spi_internal_init+0x14e>
80002894:	30 0b       	mov	r11,0
80002896:	33 7c       	mov	r12,55
80002898:	fe b0 fd 24 	rcall	800022e0 <sd_mmc_spi_send_command>
8000289c:	30 0b       	mov	r11,0
8000289e:	ea 1b 40 00 	orh	r11,0x4000
800028a2:	32 9c       	mov	r12,41
800028a4:	fe b0 fd 1e 	rcall	800022e0 <sd_mmc_spi_send_command>
800028a8:	e0 6b 00 ff 	mov	r11,255
800028ac:	ae 8c       	st.b	r7[0x0],r12
800028ae:	fe 7c 24 00 	mov	r12,-56320
800028b2:	e0 a0 14 30 	rcall	80005112 <spi_write>
800028b6:	2f f6       	sub	r6,-1
800028b8:	fe 78 c3 50 	mov	r8,-15536
800028bc:	5c 86       	casts.h	r6
800028be:	f0 06 19 00 	cp.h	r6,r8
800028c2:	c4 70       	breq	80002950 <sd_mmc_spi_internal_init+0x1fc>
800028c4:	0f 89       	ld.ub	r9,r7[0x0]
800028c6:	30 08       	mov	r8,0
800028c8:	f0 09 18 00 	cp.b	r9,r8
800028cc:	cc 81       	brne	8000285c <sd_mmc_spi_internal_init+0x108>
800028ce:	4a 27       	lddpc	r7,80002954 <sd_mmc_spi_internal_init+0x200>
800028d0:	30 28       	mov	r8,2
800028d2:	0f 89       	ld.ub	r9,r7[0x0]
800028d4:	f0 09 18 00 	cp.b	r9,r8
800028d8:	c0 91       	brne	800028ea <sd_mmc_spi_internal_init+0x196>
800028da:	fe b0 fd c9 	rcall	8000246c <sd_mmc_spi_check_hc>
800028de:	5b fc       	cp.w	r12,-1
800028e0:	c3 80       	breq	80002950 <sd_mmc_spi_internal_init+0x1fc>
800028e2:	58 1c       	cp.w	r12,1
800028e4:	c0 31       	brne	800028ea <sd_mmc_spi_internal_init+0x196>
800028e6:	30 38       	mov	r8,3
800028e8:	ae 88       	st.b	r7[0x0],r8
800028ea:	30 0b       	mov	r11,0
800028ec:	33 bc       	mov	r12,59
800028ee:	fe b0 fc f9 	rcall	800022e0 <sd_mmc_spi_send_command>
800028f2:	e0 6b 00 ff 	mov	r11,255
800028f6:	49 97       	lddpc	r7,80002958 <sd_mmc_spi_internal_init+0x204>
800028f8:	ae 8c       	st.b	r7[0x0],r12
800028fa:	fe 7c 24 00 	mov	r12,-56320
800028fe:	e0 a0 14 0a 	rcall	80005112 <spi_write>
80002902:	e0 6b 02 00 	mov	r11,512
80002906:	31 0c       	mov	r12,16
80002908:	fe b0 fc ec 	rcall	800022e0 <sd_mmc_spi_send_command>
8000290c:	e0 6b 00 ff 	mov	r11,255
80002910:	ae 8c       	st.b	r7[0x0],r12
80002912:	fe 7c 24 00 	mov	r12,-56320
80002916:	e0 a0 13 fe 	rcall	80005112 <spi_write>
8000291a:	0f 89       	ld.ub	r9,r7[0x0]
8000291c:	30 08       	mov	r8,0
8000291e:	f0 09 18 00 	cp.b	r9,r8
80002922:	c1 71       	brne	80002950 <sd_mmc_spi_internal_init+0x1fc>
80002924:	48 ec       	lddpc	r12,8000295c <sd_mmc_spi_internal_init+0x208>
80002926:	c9 1e       	rcall	80002648 <sd_mmc_spi_get_csd>
80002928:	c1 40       	breq	80002950 <sd_mmc_spi_internal_init+0x1fc>
8000292a:	fe b0 fb af 	rcall	80002088 <sd_mmc_spi_get_capacity>
8000292e:	48 d8       	lddpc	r8,80002960 <sd_mmc_spi_internal_init+0x20c>
80002930:	48 d9       	lddpc	r9,80002964 <sd_mmc_spi_internal_init+0x210>
80002932:	10 9b       	mov	r11,r8
80002934:	30 1a       	mov	r10,1
80002936:	b2 8a       	st.b	r9[0x0],r10
80002938:	e0 69 1b 00 	mov	r9,6912
8000293c:	ea 19 00 b7 	orh	r9,0xb7
80002940:	91 19       	st.w	r8[0x4],r9
80002942:	48 a8       	lddpc	r8,80002968 <sd_mmc_spi_internal_init+0x214>
80002944:	fe 7c 24 00 	mov	r12,-56320
80002948:	70 0a       	ld.w	r10,r8[0x0]
8000294a:	e0 a0 13 8d 	rcall	80005064 <spi_setupChipReg>
8000294e:	da 3a       	popm	r0-r7,pc,r12=1
80002950:	d8 3a       	popm	r0-r7,pc,r12=0
80002952:	d7 03       	nop
80002954:	00 00       	add	r0,r0
80002956:	06 8e       	andn	lr,r3
80002958:	00 00       	add	r0,r0
8000295a:	06 a0       	st.w	r3++,r0
8000295c:	00 00       	add	r0,r0
8000295e:	06 90       	mov	r0,r3
80002960:	00 00       	add	r0,r0
80002962:	02 fc       	st.b	--r1,r12
80002964:	00 00       	add	r0,r0
80002966:	03 10       	ld.sh	r0,r1++
80002968:	00 00       	add	r0,r0
8000296a:	03 0c       	ld.w	r12,r1++

8000296c <sd_mmc_spi_mem_check>:
8000296c:	d4 01       	pushm	lr
8000296e:	fe b0 fc cf 	rcall	8000230c <sd_mmc_spi_check_presence>
80002972:	c0 90       	breq	80002984 <sd_mmc_spi_mem_check+0x18>
80002974:	48 58       	lddpc	r8,80002988 <sd_mmc_spi_mem_check+0x1c>
80002976:	11 89       	ld.ub	r9,r8[0x0]
80002978:	30 08       	mov	r8,0
8000297a:	f0 09 18 00 	cp.b	r9,r8
8000297e:	c0 20       	breq	80002982 <sd_mmc_spi_mem_check+0x16>
80002980:	da 0a       	popm	pc,r12=1
80002982:	ce 9e       	rcall	80002754 <sd_mmc_spi_internal_init>
80002984:	d8 02       	popm	pc
80002986:	d7 03       	nop
80002988:	00 00       	add	r0,r0
8000298a:	03 10       	ld.sh	r0,r1++

8000298c <sd_mmc_spi_init>:
8000298c:	d4 21       	pushm	r4-r7,lr
8000298e:	48 88       	lddpc	r8,800029ac <sd_mmc_spi_init+0x20>
80002990:	fa c4 ff ec 	sub	r4,sp,-20
80002994:	e8 ea 00 08 	ld.d	r10,r4[8]
80002998:	f0 eb 00 08 	st.d	r8[8],r10
8000299c:	48 59       	lddpc	r9,800029b0 <sd_mmc_spi_init+0x24>
8000299e:	93 0c       	st.w	r9[0x0],r12
800029a0:	e8 ea 00 00 	ld.d	r10,r4[0]
800029a4:	f0 eb 00 00 	st.d	r8[0],r10
800029a8:	cd 6e       	rcall	80002754 <sd_mmc_spi_internal_init>
800029aa:	d8 22       	popm	r4-r7,pc
800029ac:	00 00       	add	r0,r0
800029ae:	02 fc       	st.b	--r1,r12
800029b0:	00 00       	add	r0,r0
800029b2:	03 0c       	ld.w	r12,r1++

800029b4 <fat_check_is_file>:
800029b4:	48 68       	lddpc	r8,800029cc <fat_check_is_file+0x18>
800029b6:	11 a8       	ld.ub	r8,r8[0x2]
800029b8:	e2 18 00 18 	andl	r8,0x18,COH
800029bc:	c0 21       	brne	800029c0 <fat_check_is_file+0xc>
800029be:	5e ff       	retal	1
800029c0:	31 39       	mov	r9,19
800029c2:	48 48       	lddpc	r8,800029d0 <fat_check_is_file+0x1c>
800029c4:	30 0c       	mov	r12,0
800029c6:	b0 89       	st.b	r8[0x0],r9
800029c8:	5e fc       	retal	r12
800029ca:	d7 03       	nop
800029cc:	00 00       	add	r0,r0
800029ce:	06 a8       	st.w	r3++,r8
800029d0:	00 00       	add	r0,r0
800029d2:	09 30       	ld.ub	r0,r4++

800029d4 <fat_checkcluster>:
800029d4:	49 68       	lddpc	r8,80002a2c <fat_checkcluster+0x58>
800029d6:	70 18       	ld.w	r8,r8[0x4]
800029d8:	58 08       	cp.w	r8,0
800029da:	c0 21       	brne	800029de <fat_checkcluster+0xa>
800029dc:	5e ff       	retal	1
800029de:	49 59       	lddpc	r9,80002a30 <fat_checkcluster+0x5c>
800029e0:	30 3a       	mov	r10,3
800029e2:	13 89       	ld.ub	r9,r9[0x0]
800029e4:	f4 09 18 00 	cp.b	r9,r10
800029e8:	c0 a1       	brne	800029fc <fat_checkcluster+0x28>
800029ea:	e0 69 ff f7 	mov	r9,65527
800029ee:	ea 19 0f ff 	orh	r9,0xfff
800029f2:	12 38       	cp.w	r8,r9
800029f4:	e0 8b 00 19 	brhi	80002a26 <fat_checkcluster+0x52>
800029f8:	5f 0c       	sreq	r12
800029fa:	5e fc       	retal	r12
800029fc:	30 2a       	mov	r10,2
800029fe:	f4 09 18 00 	cp.b	r9,r10
80002a02:	c0 71       	brne	80002a10 <fat_checkcluster+0x3c>
80002a04:	e0 48 ff f7 	cp.w	r8,65527
80002a08:	e0 8b 00 0f 	brhi	80002a26 <fat_checkcluster+0x52>
80002a0c:	5f 0c       	sreq	r12
80002a0e:	5e fc       	retal	r12
80002a10:	30 1a       	mov	r10,1
80002a12:	f4 09 18 00 	cp.b	r9,r10
80002a16:	c0 20       	breq	80002a1a <fat_checkcluster+0x46>
80002a18:	5e fd       	retal	0
80002a1a:	e0 48 0f f7 	cp.w	r8,4087
80002a1e:	e0 8b 00 04 	brhi	80002a26 <fat_checkcluster+0x52>
80002a22:	5f 0c       	sreq	r12
80002a24:	5e fc       	retal	r12
80002a26:	30 2c       	mov	r12,2
80002a28:	5e fc       	retal	r12
80002a2a:	d7 03       	nop
80002a2c:	00 00       	add	r0,r0
80002a2e:	09 80       	ld.ub	r0,r4[0x0]
80002a30:	00 00       	add	r0,r0
80002a32:	09 2c       	ld.uh	r12,r4++

80002a34 <fat_cache_clusterlist_reset>:
80002a34:	3f f9       	mov	r9,-1
80002a36:	48 88       	lddpc	r8,80002a54 <fat_cache_clusterlist_reset+0x20>
80002a38:	f1 69 00 15 	st.b	r8[21],r9
80002a3c:	b0 a9       	st.b	r8[0x2],r9
80002a3e:	b0 99       	st.b	r8[0x1],r9
80002a40:	f1 69 00 16 	st.b	r8[22],r9
80002a44:	30 09       	mov	r9,0
80002a46:	f1 69 00 14 	st.b	r8[20],r9
80002a4a:	48 4a       	lddpc	r10,80002a58 <fat_cache_clusterlist_reset+0x24>
80002a4c:	b4 89       	st.b	r10[0x0],r9
80002a4e:	30 19       	mov	r9,1
80002a50:	b0 89       	st.b	r8[0x0],r9
80002a52:	5e fc       	retal	r12
80002a54:	00 00       	add	r0,r0
80002a56:	06 bc       	st.h	r3++,r12
80002a58:	00 00       	add	r0,r0
80002a5a:	09 32       	ld.ub	r2,r4++

80002a5c <fat_cache_clusterlist_update_finish>:
80002a5c:	d4 21       	pushm	r4-r7,lr
80002a5e:	4a 18       	lddpc	r8,80002ae0 <fat_cache_clusterlist_update_finish+0x84>
80002a60:	4a 1e       	lddpc	lr,80002ae4 <fat_cache_clusterlist_update_finish+0x88>
80002a62:	11 8b       	ld.ub	r11,r8[0x0]
80002a64:	11 95       	ld.ub	r5,r8[0x1]
80002a66:	4a 1a       	lddpc	r10,80002ae8 <fat_cache_clusterlist_update_finish+0x8c>
80002a68:	4a 19       	lddpc	r9,80002aec <fat_cache_clusterlist_update_finish+0x90>
80002a6a:	13 89       	ld.ub	r9,r9[0x0]
80002a6c:	f2 09 00 28 	add	r8,r9,r9<<0x2
80002a70:	f4 08 00 28 	add	r8,r10,r8<<0x2
80002a74:	f0 cc ff f8 	sub	r12,r8,-8
80002a78:	7c 16       	ld.w	r6,lr[0x4]
80002a7a:	b0 ab       	st.b	r8[0x2],r11
80002a7c:	7c 07       	ld.w	r7,lr[0x0]
80002a7e:	78 0e       	ld.w	lr,r12[0x0]
80002a80:	fc 05 0d 04 	divu	r4,lr,r5
80002a84:	f7 d5 c0 08 	bfextu	r11,r5,0x0,0x8
80002a88:	16 1e       	sub	lr,r11
80002a8a:	16 17       	sub	r7,r11
80002a8c:	99 0e       	st.w	r12[0x0],lr
80002a8e:	91 37       	st.w	r8[0xc],r7
80002a90:	f6 06 00 0c 	add	r12,r11,r6
80002a94:	91 4c       	st.w	r8[0x10],r12
80002a96:	11 9b       	ld.ub	r11,r8[0x1]
80002a98:	11 8c       	ld.ub	r12,r8[0x0]
80002a9a:	15 88       	ld.ub	r8,r10[0x0]
80002a9c:	f8 08 18 00 	cp.b	r8,r12
80002aa0:	c0 81       	brne	80002ab0 <fat_cache_clusterlist_update_finish+0x54>
80002aa2:	15 98       	ld.ub	r8,r10[0x1]
80002aa4:	f0 0b 18 00 	cp.b	r11,r8
80002aa8:	e0 88 00 04 	brls	80002ab0 <fat_cache_clusterlist_update_finish+0x54>
80002aac:	2f f8       	sub	r8,-1
80002aae:	b4 98       	st.b	r10[0x1],r8
80002ab0:	48 e8       	lddpc	r8,80002ae8 <fat_cache_clusterlist_update_finish+0x8c>
80002ab2:	f1 3a 00 14 	ld.ub	r10,r8[20]
80002ab6:	f8 0a 18 00 	cp.b	r10,r12
80002aba:	c0 a1       	brne	80002ace <fat_cache_clusterlist_update_finish+0x72>
80002abc:	f1 3a 00 15 	ld.ub	r10,r8[21]
80002ac0:	f4 0b 18 00 	cp.b	r11,r10
80002ac4:	e0 88 00 05 	brls	80002ace <fat_cache_clusterlist_update_finish+0x72>
80002ac8:	2f fa       	sub	r10,-1
80002aca:	f1 6a 00 15 	st.b	r8[21],r10
80002ace:	48 78       	lddpc	r8,80002ae8 <fat_cache_clusterlist_update_finish+0x8c>
80002ad0:	f2 09 00 29 	add	r9,r9,r9<<0x2
80002ad4:	f0 09 00 29 	add	r9,r8,r9<<0x2
80002ad8:	30 08       	mov	r8,0
80002ada:	b2 98       	st.b	r9[0x1],r8
80002adc:	d8 22       	popm	r4-r7,pc
80002ade:	d7 03       	nop
80002ae0:	00 00       	add	r0,r0
80002ae2:	08 e4       	st.h	--r4,r4
80002ae4:	00 00       	add	r0,r0
80002ae6:	09 88       	ld.ub	r8,r4[0x0]
80002ae8:	00 00       	add	r0,r0
80002aea:	06 bc       	st.h	r3++,r12
80002aec:	00 00       	add	r0,r0
80002aee:	09 32       	ld.ub	r2,r4++

80002af0 <fat_cache_clusterlist_update_read>:
80002af0:	d4 31       	pushm	r0-r7,lr
80002af2:	4c f8       	lddpc	r8,80002c2c <fat_cache_clusterlist_update_read+0x13c>
80002af4:	11 87       	ld.ub	r7,r8[0x0]
80002af6:	4c f8       	lddpc	r8,80002c30 <fat_cache_clusterlist_update_read+0x140>
80002af8:	70 0b       	ld.w	r11,r8[0x0]
80002afa:	4c f8       	lddpc	r8,80002c34 <fat_cache_clusterlist_update_read+0x144>
80002afc:	70 19       	ld.w	r9,r8[0x4]
80002afe:	4c f8       	lddpc	r8,80002c38 <fat_cache_clusterlist_update_read+0x148>
80002b00:	11 8e       	ld.ub	lr,r8[0x0]
80002b02:	f8 0e 18 00 	cp.b	lr,r12
80002b06:	c0 f1       	brne	80002b24 <fat_cache_clusterlist_update_read+0x34>
80002b08:	11 aa       	ld.ub	r10,r8[0x2]
80002b0a:	0e 96       	mov	r6,r7
80002b0c:	ee 0a 18 00 	cp.b	r10,r7
80002b10:	c0 a1       	brne	80002b24 <fat_cache_clusterlist_update_read+0x34>
80002b12:	70 1a       	ld.w	r10,r8[0x4]
80002b14:	16 3a       	cp.w	r10,r11
80002b16:	c0 71       	brne	80002b24 <fat_cache_clusterlist_update_read+0x34>
80002b18:	70 2a       	ld.w	r10,r8[0x8]
80002b1a:	12 3a       	cp.w	r10,r9
80002b1c:	e0 8b 00 04 	brhi	80002b24 <fat_cache_clusterlist_update_read+0x34>
80002b20:	30 08       	mov	r8,0
80002b22:	c1 48       	rjmp	80002b4a <fat_cache_clusterlist_update_read+0x5a>
80002b24:	4c 58       	lddpc	r8,80002c38 <fat_cache_clusterlist_update_read+0x148>
80002b26:	f1 3a 00 14 	ld.ub	r10,r8[20]
80002b2a:	f8 0a 18 00 	cp.b	r10,r12
80002b2e:	c6 b1       	brne	80002c04 <fat_cache_clusterlist_update_read+0x114>
80002b30:	f1 3a 00 16 	ld.ub	r10,r8[22]
80002b34:	ee 0a 18 00 	cp.b	r10,r7
80002b38:	c6 61       	brne	80002c04 <fat_cache_clusterlist_update_read+0x114>
80002b3a:	70 6a       	ld.w	r10,r8[0x18]
80002b3c:	16 3a       	cp.w	r10,r11
80002b3e:	c6 31       	brne	80002c04 <fat_cache_clusterlist_update_read+0x114>
80002b40:	70 7a       	ld.w	r10,r8[0x1c]
80002b42:	12 3a       	cp.w	r10,r9
80002b44:	e0 8b 00 60 	brhi	80002c04 <fat_cache_clusterlist_update_read+0x114>
80002b48:	30 18       	mov	r8,1
80002b4a:	f2 0a 01 05 	sub	r5,r9,r10
80002b4e:	4b b6       	lddpc	r6,80002c38 <fat_cache_clusterlist_update_read+0x148>
80002b50:	f0 0a 15 02 	lsl	r10,r8,0x2
80002b54:	4b 87       	lddpc	r7,80002c34 <fat_cache_clusterlist_update_read+0x144>
80002b56:	10 0a       	add	r10,r8
80002b58:	4b 93       	lddpc	r3,80002c3c <fat_cache_clusterlist_update_read+0x14c>
80002b5a:	ec 0a 00 2a 	add	r10,r6,r10<<0x2
80002b5e:	74 4b       	ld.w	r11,r10[0x10]
80002b60:	f4 c4 ff f4 	sub	r4,r10,-12
80002b64:	0a 3b       	cp.w	r11,r5
80002b66:	e0 88 00 2b 	brls	80002bbc <fat_cache_clusterlist_update_read+0xcc>
80002b6a:	0a 1b       	sub	r11,r5
80002b6c:	a6 88       	st.b	r3[0x0],r8
80002b6e:	8f 1b       	st.w	r7[0x4],r11
80002b70:	68 09       	ld.w	r9,r4[0x0]
80002b72:	12 05       	add	r5,r9
80002b74:	8f 05       	st.w	r7[0x0],r5
80002b76:	15 9b       	ld.ub	r11,r10[0x1]
80002b78:	f8 0e 18 00 	cp.b	lr,r12
80002b7c:	c0 81       	brne	80002b8c <fat_cache_clusterlist_update_read+0x9c>
80002b7e:	0d 99       	ld.ub	r9,r6[0x1]
80002b80:	f2 0b 18 00 	cp.b	r11,r9
80002b84:	e0 88 00 04 	brls	80002b8c <fat_cache_clusterlist_update_read+0x9c>
80002b88:	2f f9       	sub	r9,-1
80002b8a:	ac 99       	st.b	r6[0x1],r9
80002b8c:	4a b9       	lddpc	r9,80002c38 <fat_cache_clusterlist_update_read+0x148>
80002b8e:	f3 3a 00 14 	ld.ub	r10,r9[20]
80002b92:	f8 0a 18 00 	cp.b	r10,r12
80002b96:	c0 a1       	brne	80002baa <fat_cache_clusterlist_update_read+0xba>
80002b98:	f3 3a 00 15 	ld.ub	r10,r9[21]
80002b9c:	f4 0b 18 00 	cp.b	r11,r10
80002ba0:	e0 88 00 05 	brls	80002baa <fat_cache_clusterlist_update_read+0xba>
80002ba4:	2f fa       	sub	r10,-1
80002ba6:	f3 6a 00 15 	st.b	r9[21],r10
80002baa:	4a 49       	lddpc	r9,80002c38 <fat_cache_clusterlist_update_read+0x148>
80002bac:	f0 08 00 28 	add	r8,r8,r8<<0x2
80002bb0:	30 1c       	mov	r12,1
80002bb2:	f2 08 00 28 	add	r8,r9,r8<<0x2
80002bb6:	30 09       	mov	r9,0
80002bb8:	b0 99       	st.b	r8[0x1],r9
80002bba:	d8 32       	popm	r0-r7,pc
80002bbc:	a6 88       	st.b	r3[0x0],r8
80002bbe:	49 cc       	lddpc	r12,80002c2c <fat_cache_clusterlist_update_read+0x13c>
80002bc0:	f4 ce ff f8 	sub	lr,r10,-8
80002bc4:	19 98       	ld.ub	r8,r12[0x1]
80002bc6:	78 46       	ld.w	r6,r12[0x10]
80002bc8:	7c 03       	ld.w	r3,lr[0x0]
80002bca:	9d 09       	st.w	lr[0x0],r9
80002bcc:	68 05       	ld.w	r5,r4[0x0]
80002bce:	f6 03 00 03 	add	r3,r11,r3
80002bd2:	f6 05 00 05 	add	r5,r11,r5
80002bd6:	20 13       	sub	r3,1
80002bd8:	e6 08 0d 02 	divu	r2,r3,r8
80002bdc:	f0 02 02 4b 	mul	r11,r8,r2
80002be0:	f2 0b 01 0b 	sub	r11,r9,r11
80002be4:	3f f9       	mov	r9,-1
80002be6:	8f 1b       	st.w	r7[0x4],r11
80002be8:	b4 a9       	st.b	r10[0x2],r9
80002bea:	20 15       	sub	r5,1
80002bec:	78 5a       	ld.w	r10,r12[0x14]
80002bee:	ea 0a 01 09 	sub	r9,r5,r10
80002bf2:	0c 19       	sub	r9,r6
80002bf4:	f2 08 0d 08 	divu	r8,r9,r8
80002bf8:	30 0c       	mov	r12,0
80002bfa:	f0 c9 ff fe 	sub	r9,r8,-2
80002bfe:	48 d8       	lddpc	r8,80002c30 <fat_cache_clusterlist_update_read+0x140>
80002c00:	91 09       	st.w	r8[0x0],r9
80002c02:	d8 32       	popm	r0-r7,pc
80002c04:	fd ec 20 0a 	eor	r10,lr,r12
80002c08:	48 c8       	lddpc	r8,80002c38 <fat_cache_clusterlist_update_read+0x148>
80002c0a:	f4 0a 00 2e 	add	lr,r10,r10<<0x2
80002c0e:	fc c7 ff ff 	sub	r7,lr,-1
80002c12:	f0 07 09 2b 	st.w	r8[r7<<0x2],r11
80002c16:	f0 0e 00 28 	add	r8,r8,lr<<0x2
80002c1a:	91 29       	st.w	r8[0x8],r9
80002c1c:	b0 8c       	st.b	r8[0x0],r12
80002c1e:	48 89       	lddpc	r9,80002c3c <fat_cache_clusterlist_update_read+0x14c>
80002c20:	b2 8a       	st.b	r9[0x0],r10
80002c22:	30 0c       	mov	r12,0
80002c24:	3f f9       	mov	r9,-1
80002c26:	b0 a9       	st.b	r8[0x2],r9
80002c28:	d8 32       	popm	r0-r7,pc
80002c2a:	d7 03       	nop
80002c2c:	00 00       	add	r0,r0
80002c2e:	08 e4       	st.h	--r4,r4
80002c30:	00 00       	add	r0,r0
80002c32:	09 80       	ld.ub	r0,r4[0x0]
80002c34:	00 00       	add	r0,r0
80002c36:	09 88       	ld.ub	r8,r4[0x0]
80002c38:	00 00       	add	r0,r0
80002c3a:	06 bc       	st.h	r3++,r12
80002c3c:	00 00       	add	r0,r0
80002c3e:	09 32       	ld.ub	r2,r4++

80002c40 <fat_entry_check>:
80002c40:	49 38       	lddpc	r8,80002c8c <fat_entry_check+0x4c>
80002c42:	90 99       	ld.uh	r9,r8[0x2]
80002c44:	49 38       	lddpc	r8,80002c90 <fat_entry_check+0x50>
80002c46:	a5 79       	lsl	r9,0x5
80002c48:	49 3a       	lddpc	r10,80002c94 <fat_entry_check+0x54>
80002c4a:	f3 d9 c0 09 	bfextu	r9,r9,0x0,0x9
80002c4e:	10 09       	add	r9,r8
80002c50:	13 88       	ld.ub	r8,r9[0x0]
80002c52:	58 08       	cp.w	r8,0
80002c54:	c0 51       	brne	80002c5e <fat_entry_check+0x1e>
80002c56:	10 9c       	mov	r12,r8
80002c58:	30 a8       	mov	r8,10
80002c5a:	b4 88       	st.b	r10[0x0],r8
80002c5c:	5e fc       	retal	r12
80002c5e:	30 bb       	mov	r11,11
80002c60:	b4 8b       	st.b	r10[0x0],r11
80002c62:	3e 5a       	mov	r10,-27
80002c64:	f4 08 18 00 	cp.b	r8,r10
80002c68:	c1 10       	breq	80002c8a <fat_entry_check+0x4a>
80002c6a:	32 ea       	mov	r10,46
80002c6c:	f4 08 18 00 	cp.b	r8,r10
80002c70:	c0 d0       	breq	80002c8a <fat_entry_check+0x4a>
80002c72:	f3 38 00 0b 	ld.ub	r8,r9[11]
80002c76:	ed b8 00 03 	bld	r8,0x3
80002c7a:	c0 80       	breq	80002c8a <fat_entry_check+0x4a>
80002c7c:	ed b8 00 04 	bld	r8,0x4
80002c80:	5e 1c       	retne	r12
80002c82:	ec 1c 00 01 	eorl	r12,0x1
80002c86:	5c 5c       	castu.b	r12
80002c88:	5e fc       	retal	r12
80002c8a:	5e fd       	retal	0
80002c8c:	00 00       	add	r0,r0
80002c8e:	09 2c       	ld.uh	r12,r4++
80002c90:	00 00       	add	r0,r0
80002c92:	06 e4       	st.h	--r3,r4
80002c94:	00 00       	add	r0,r0
80002c96:	09 30       	ld.ub	r0,r4++

80002c98 <fat_get_entry_info>:
80002c98:	d4 21       	pushm	r4-r7,lr
80002c9a:	49 49       	lddpc	r9,80002ce8 <fat_get_entry_info+0x50>
80002c9c:	92 9b       	ld.uh	r11,r9[0x2]
80002c9e:	49 49       	lddpc	r9,80002cec <fat_get_entry_info+0x54>
80002ca0:	a5 7b       	lsl	r11,0x5
80002ca2:	f7 db c0 09 	bfextu	r11,r11,0x0,0x9
80002ca6:	12 0b       	add	r11,r9
80002ca8:	f6 c9 ff e4 	sub	r9,r11,-28
80002cac:	13 be       	ld.ub	lr,r9[0x3]
80002cae:	49 1c       	lddpc	r12,80002cf0 <fat_get_entry_info+0x58>
80002cb0:	f6 c7 ff ec 	sub	r7,r11,-20
80002cb4:	f8 c8 ff f8 	sub	r8,r12,-8
80002cb8:	b0 8e       	st.b	r8[0x0],lr
80002cba:	0f 9e       	ld.ub	lr,r7[0x1]
80002cbc:	f8 ca ff fc 	sub	r10,r12,-4
80002cc0:	b4 8e       	st.b	r10[0x0],lr
80002cc2:	f6 ce ff e6 	sub	lr,r11,-26
80002cc6:	1d 96       	ld.ub	r6,lr[0x1]
80002cc8:	b4 a6       	st.b	r10[0x2],r6
80002cca:	f7 3b 00 0b 	ld.ub	r11,r11[11]
80002cce:	b8 ab       	st.b	r12[0x2],r11
80002cd0:	0f 8b       	ld.ub	r11,r7[0x0]
80002cd2:	b4 9b       	st.b	r10[0x1],r11
80002cd4:	1d 8b       	ld.ub	r11,lr[0x0]
80002cd6:	b4 bb       	st.b	r10[0x3],r11
80002cd8:	13 8a       	ld.ub	r10,r9[0x0]
80002cda:	b0 ba       	st.b	r8[0x3],r10
80002cdc:	13 9a       	ld.ub	r10,r9[0x1]
80002cde:	b0 aa       	st.b	r8[0x2],r10
80002ce0:	13 a9       	ld.ub	r9,r9[0x2]
80002ce2:	b0 99       	st.b	r8[0x1],r9
80002ce4:	d8 22       	popm	r4-r7,pc
80002ce6:	d7 03       	nop
80002ce8:	00 00       	add	r0,r0
80002cea:	09 2c       	ld.uh	r12,r4++
80002cec:	00 00       	add	r0,r0
80002cee:	06 e4       	st.h	--r3,r4
80002cf0:	00 00       	add	r0,r0
80002cf2:	06 a8       	st.w	r3++,r8

80002cf4 <fat_entry_is_dir>:
80002cf4:	48 48       	lddpc	r8,80002d04 <fat_entry_is_dir+0x10>
80002cf6:	30 d9       	mov	r9,13
80002cf8:	b0 89       	st.b	r8[0x0],r9
80002cfa:	48 48       	lddpc	r8,80002d08 <fat_entry_is_dir+0x14>
80002cfc:	11 ac       	ld.ub	r12,r8[0x2]
80002cfe:	f9 dc c0 81 	bfextu	r12,r12,0x4,0x1
80002d02:	5e fc       	retal	r12
80002d04:	00 00       	add	r0,r0
80002d06:	09 30       	ld.ub	r0,r4++
80002d08:	00 00       	add	r0,r0
80002d0a:	06 a8       	st.w	r3++,r8

80002d0c <fat_clear_entry_info_and_ptr>:
80002d0c:	3f f9       	mov	r9,-1
80002d0e:	48 a8       	lddpc	r8,80002d34 <fat_clear_entry_info_and_ptr+0x28>
80002d10:	48 aa       	lddpc	r10,80002d38 <fat_clear_entry_info_and_ptr+0x2c>
80002d12:	f1 59 00 24 	st.h	r8[36],r9
80002d16:	b4 19       	st.h	r10[0x2],r9
80002d18:	f1 39 00 2d 	ld.ub	r9,r8[45]
80002d1c:	58 09       	cp.w	r9,0
80002d1e:	c0 31       	brne	80002d24 <fat_clear_entry_info_and_ptr+0x18>
80002d20:	f1 69 00 2c 	st.b	r8[44],r9
80002d24:	48 68       	lddpc	r8,80002d3c <fat_clear_entry_info_and_ptr+0x30>
80002d26:	30 09       	mov	r9,0
80002d28:	b0 89       	st.b	r8[0x0],r9
80002d2a:	91 19       	st.w	r8[0x4],r9
80002d2c:	91 29       	st.w	r8[0x8],r9
80002d2e:	b0 a9       	st.b	r8[0x2],r9
80002d30:	5e fc       	retal	r12
80002d32:	d7 03       	nop
80002d34:	00 00       	add	r0,r0
80002d36:	08 e4       	st.h	--r4,r4
80002d38:	00 00       	add	r0,r0
80002d3a:	09 2c       	ld.uh	r12,r4++
80002d3c:	00 00       	add	r0,r0
80002d3e:	06 a8       	st.w	r3++,r8

80002d40 <fat_entry_shortname>:
80002d40:	d4 31       	pushm	r0-r7,lr
80002d42:	4b c8       	lddpc	r8,80002e30 <fat_entry_shortname+0xf0>
80002d44:	31 69       	mov	r9,22
80002d46:	b0 89       	st.b	r8[0x0],r9
80002d48:	4b b8       	lddpc	r8,80002e34 <fat_entry_shortname+0xf4>
80002d4a:	30 09       	mov	r9,0
80002d4c:	90 93       	ld.uh	r3,r8[0x2]
80002d4e:	30 14       	mov	r4,1
80002d50:	a5 73       	lsl	r3,0x5
80002d52:	4b a8       	lddpc	r8,80002e38 <fat_entry_shortname+0xf8>
80002d54:	e7 d3 c0 09 	bfextu	r3,r3,0x0,0x9
80002d58:	12 97       	mov	r7,r9
80002d5a:	10 03       	add	r3,r8
80002d5c:	30 b2       	mov	r2,11
80002d5e:	30 85       	mov	r5,8
80002d60:	32 06       	mov	r6,32
80002d62:	e4 09 18 00 	cp.b	r9,r2
80002d66:	c1 80       	breq	80002d96 <fat_entry_shortname+0x56>
80002d68:	e6 09 07 08 	ld.ub	r8,r3[r9]
80002d6c:	ea 09 18 00 	cp.b	r9,r5
80002d70:	c0 31       	brne	80002d76 <fat_entry_shortname+0x36>
80002d72:	58 04       	cp.w	r4,0
80002d74:	c0 81       	brne	80002d84 <fat_entry_shortname+0x44>
80002d76:	ec 08 18 00 	cp.b	r8,r6
80002d7a:	c0 f1       	brne	80002d98 <fat_entry_shortname+0x58>
80002d7c:	ea 09 18 00 	cp.b	r9,r5
80002d80:	e0 8b 00 0b 	brhi	80002d96 <fat_entry_shortname+0x56>
80002d84:	e7 38 00 08 	ld.ub	r8,r3[8]
80002d88:	ec 08 18 00 	cp.b	r8,r6
80002d8c:	c0 50       	breq	80002d96 <fat_entry_shortname+0x56>
80002d8e:	30 79       	mov	r9,7
80002d90:	32 e8       	mov	r8,46
80002d92:	30 04       	mov	r4,0
80002d94:	c0 28       	rjmp	80002d98 <fat_entry_shortname+0x58>
80002d96:	30 08       	mov	r8,0
80002d98:	58 0a       	cp.w	r10,0
80002d9a:	c1 70       	breq	80002dc8 <fat_entry_shortname+0x88>
80002d9c:	4a 8e       	lddpc	lr,80002e3c <fat_entry_shortname+0xfc>
80002d9e:	1d 81       	ld.ub	r1,lr[0x0]
80002da0:	30 0e       	mov	lr,0
80002da2:	fc 01 18 00 	cp.b	r1,lr
80002da6:	c2 d1       	brne	80002e00 <fat_entry_shortname+0xc0>
80002da8:	f6 ce 00 01 	sub	lr,r11,1
80002dac:	1c 37       	cp.w	r7,lr
80002dae:	f9 b8 04 00 	movge	r8,0
80002db2:	31 9e       	mov	lr,25
80002db4:	f0 c1 00 41 	sub	r1,r8,65
80002db8:	fc 01 18 00 	cp.b	r1,lr
80002dbc:	e0 8b 00 04 	brhi	80002dc4 <fat_entry_shortname+0x84>
80002dc0:	2e 08       	sub	r8,-32
80002dc2:	5c 58       	castu.b	r8
80002dc4:	b8 88       	st.b	r12[0x0],r8
80002dc6:	c1 d8       	rjmp	80002e00 <fat_entry_shortname+0xc0>
80002dc8:	19 8e       	ld.ub	lr,r12[0x0]
80002dca:	32 a1       	mov	r1,42
80002dcc:	e2 0e 18 00 	cp.b	lr,r1
80002dd0:	c2 f0       	breq	80002e2e <fat_entry_shortname+0xee>
80002dd2:	58 08       	cp.w	r8,0
80002dd4:	c0 e1       	brne	80002df0 <fat_entry_shortname+0xb0>
80002dd6:	32 f1       	mov	r1,47
80002dd8:	e2 0e 18 00 	cp.b	lr,r1
80002ddc:	5f 10       	srne	r0
80002dde:	35 c1       	mov	r1,92
80002de0:	e2 0e 18 00 	cp.b	lr,r1
80002de4:	5f 11       	srne	r1
80002de6:	02 60       	and	r0,r1
80002de8:	10 91       	mov	r1,r8
80002dea:	f0 00 18 00 	cp.b	r0,r8
80002dee:	c0 b0       	breq	80002e04 <fat_entry_shortname+0xc4>
80002df0:	f0 0e 18 00 	cp.b	lr,r8
80002df4:	c0 60       	breq	80002e00 <fat_entry_shortname+0xc0>
80002df6:	f0 c1 ff e0 	sub	r1,r8,-32
80002dfa:	02 3e       	cp.w	lr,r1
80002dfc:	c0 20       	breq	80002e00 <fat_entry_shortname+0xc0>
80002dfe:	d8 3a       	popm	r0-r7,pc,r12=0
80002e00:	58 08       	cp.w	r8,0
80002e02:	c0 a1       	brne	80002e16 <fat_entry_shortname+0xd6>
80002e04:	48 e8       	lddpc	r8,80002e3c <fat_entry_shortname+0xfc>
80002e06:	11 89       	ld.ub	r9,r8[0x0]
80002e08:	30 08       	mov	r8,0
80002e0a:	f0 09 18 00 	cp.b	r9,r8
80002e0e:	c1 00       	breq	80002e2e <fat_entry_shortname+0xee>
80002e10:	2f f7       	sub	r7,-1
80002e12:	b8 07       	st.h	r12[0x0],r7
80002e14:	da 3a       	popm	r0-r7,pc,r12=1
80002e16:	48 a8       	lddpc	r8,80002e3c <fat_entry_shortname+0xfc>
80002e18:	11 8e       	ld.ub	lr,r8[0x0]
80002e1a:	30 08       	mov	r8,0
80002e1c:	f0 0e 18 00 	cp.b	lr,r8
80002e20:	c0 21       	brne	80002e24 <fat_entry_shortname+0xe4>
80002e22:	2f fc       	sub	r12,-1
80002e24:	2f f7       	sub	r7,-1
80002e26:	2f f9       	sub	r9,-1
80002e28:	5c 57       	castu.b	r7
80002e2a:	5c 59       	castu.b	r9
80002e2c:	c9 bb       	rjmp	80002d62 <fat_entry_shortname+0x22>
80002e2e:	da 3a       	popm	r0-r7,pc,r12=1
80002e30:	00 00       	add	r0,r0
80002e32:	09 30       	ld.ub	r0,r4++
80002e34:	00 00       	add	r0,r0
80002e36:	09 2c       	ld.uh	r12,r4++
80002e38:	00 00       	add	r0,r0
80002e3a:	06 e4       	st.h	--r3,r4
80002e3c:	00 00       	add	r0,r0
80002e3e:	09 31       	ld.ub	r1,r4++

80002e40 <fat_entry_longname>:
80002e40:	d4 31       	pushm	r0-r7,lr
80002e42:	20 2d       	sub	sp,8
80002e44:	4c be       	lddpc	lr,80002f70 <fat_entry_longname+0x130>
80002e46:	3e 57       	mov	r7,-27
80002e48:	4c b8       	lddpc	r8,80002f74 <fat_entry_longname+0x134>
80002e4a:	30 06       	mov	r6,0
80002e4c:	90 98       	ld.uh	r8,r8[0x2]
80002e4e:	a5 78       	lsl	r8,0x5
80002e50:	f1 d8 c0 09 	bfextu	r8,r8,0x0,0x9
80002e54:	1c 08       	add	r8,lr
80002e56:	11 8e       	ld.ub	lr,r8[0x0]
80002e58:	ee 0e 18 00 	cp.b	lr,r7
80002e5c:	5f 05       	sreq	r5
80002e5e:	ec 0e 18 00 	cp.b	lr,r6
80002e62:	5f 07       	sreq	r7
80002e64:	0e 45       	or	r5,r7
80002e66:	0a 97       	mov	r7,r5
80002e68:	ec 05 18 00 	cp.b	r5,r6
80002e6c:	c0 71       	brne	80002e7a <fat_entry_longname+0x3a>
80002e6e:	f1 35 00 0b 	ld.ub	r5,r8[11]
80002e72:	30 f6       	mov	r6,15
80002e74:	ec 05 18 00 	cp.b	r5,r6
80002e78:	c0 30       	breq	80002e7e <fat_entry_longname+0x3e>
80002e7a:	30 b9       	mov	r9,11
80002e7c:	c5 08       	rjmp	80002f1c <fat_entry_longname+0xdc>
80002e7e:	4b f6       	lddpc	r6,80002f78 <fat_entry_longname+0x138>
80002e80:	0d 86       	ld.ub	r6,r6[0x0]
80002e82:	ee 06 18 00 	cp.b	r6,r7
80002e86:	c0 60       	breq	80002e92 <fat_entry_longname+0x52>
80002e88:	e2 1e 00 40 	andl	lr,0x40,COH
80002e8c:	c0 31       	brne	80002e92 <fat_entry_longname+0x52>
80002e8e:	1c 9c       	mov	r12,lr
80002e90:	c6 c8       	rjmp	80002f68 <fat_entry_longname+0x128>
80002e92:	20 1b       	sub	r11,1
80002e94:	2f f8       	sub	r8,-1
80002e96:	50 0b       	stdsp	sp[0x0],r11
80002e98:	fa c3 ff fa 	sub	r3,sp,-6
80002e9c:	30 0b       	mov	r11,0
80002e9e:	4b 74       	lddpc	r4,80002f78 <fat_entry_longname+0x138>
80002ea0:	16 97       	mov	r7,r11
80002ea2:	16 95       	mov	r5,r11
80002ea4:	11 8e       	ld.ub	lr,r8[0x0]
80002ea6:	a6 9e       	st.b	r3[0x1],lr
80002ea8:	11 9e       	ld.ub	lr,r8[0x1]
80002eaa:	a6 8e       	st.b	r3[0x0],lr
80002eac:	58 0a       	cp.w	r10,0
80002eae:	c0 e0       	breq	80002eca <fat_entry_longname+0x8a>
80002eb0:	09 8e       	ld.ub	lr,r4[0x0]
80002eb2:	1c 96       	mov	r6,lr
80002eb4:	ee 0e 18 00 	cp.b	lr,r7
80002eb8:	c3 61       	brne	80002f24 <fat_entry_longname+0xe4>
80002eba:	40 06       	lddsp	r6,sp[0x0]
80002ebc:	0c 3b       	cp.w	r11,r6
80002ebe:	c0 35       	brlt	80002ec4 <fat_entry_longname+0x84>
80002ec0:	b8 8e       	st.b	r12[0x0],lr
80002ec2:	c8 e8       	rjmp	80002fde <fat_entry_longname+0x19e>
80002ec4:	9a 3e       	ld.sh	lr,sp[0x6]
80002ec6:	b8 8e       	st.b	r12[0x0],lr
80002ec8:	c2 e8       	rjmp	80002f24 <fat_entry_longname+0xe4>
80002eca:	19 8e       	ld.ub	lr,r12[0x0]
80002ecc:	32 a2       	mov	r2,42
80002ece:	e4 0e 19 00 	cp.h	lr,r2
80002ed2:	e0 80 00 86 	breq	80002fde <fat_entry_longname+0x19e>
80002ed6:	9a 36       	ld.sh	r6,sp[0x6]
80002ed8:	58 06       	cp.w	r6,0
80002eda:	c0 e1       	brne	80002ef6 <fat_entry_longname+0xb6>
80002edc:	32 f2       	mov	r2,47
80002ede:	e4 0e 19 00 	cp.h	lr,r2
80002ee2:	5f 11       	srne	r1
80002ee4:	35 c2       	mov	r2,92
80002ee6:	e4 0e 19 00 	cp.h	lr,r2
80002eea:	5f 12       	srne	r2
80002eec:	e3 e2 00 02 	and	r2,r1,r2
80002ef0:	ee 02 18 00 	cp.b	r2,r7
80002ef4:	c1 80       	breq	80002f24 <fat_entry_longname+0xe4>
80002ef6:	e3 d6 c0 10 	bfextu	r1,r6,0x0,0x10
80002efa:	e5 de c0 10 	bfextu	r2,lr,0x0,0x10
80002efe:	e2 c0 ff e0 	sub	r0,r1,-32
80002f02:	00 32       	cp.w	r2,r0
80002f04:	c0 31       	brne	80002f0a <fat_entry_longname+0xca>
80002f06:	58 09       	cp.w	r9,0
80002f08:	c0 e0       	breq	80002f24 <fat_entry_longname+0xe4>
80002f0a:	22 01       	sub	r1,32
80002f0c:	02 32       	cp.w	r2,r1
80002f0e:	c0 31       	brne	80002f14 <fat_entry_longname+0xd4>
80002f10:	58 09       	cp.w	r9,0
80002f12:	c0 90       	breq	80002f24 <fat_entry_longname+0xe4>
80002f14:	ec 0e 19 00 	cp.h	lr,r6
80002f18:	c0 60       	breq	80002f24 <fat_entry_longname+0xe4>
80002f1a:	31 69       	mov	r9,22
80002f1c:	49 88       	lddpc	r8,80002f7c <fat_entry_longname+0x13c>
80002f1e:	30 0c       	mov	r12,0
80002f20:	b0 89       	st.b	r8[0x0],r9
80002f22:	c5 f8       	rjmp	80002fe0 <fat_entry_longname+0x1a0>
80002f24:	9a 3e       	ld.sh	lr,sp[0x6]
80002f26:	ea 0e 19 00 	cp.h	lr,r5
80002f2a:	c0 91       	brne	80002f3c <fat_entry_longname+0xfc>
80002f2c:	49 38       	lddpc	r8,80002f78 <fat_entry_longname+0x138>
80002f2e:	11 88       	ld.ub	r8,r8[0x0]
80002f30:	ea 08 18 00 	cp.b	r8,r5
80002f34:	c5 50       	breq	80002fde <fat_entry_longname+0x19e>
80002f36:	2f fb       	sub	r11,-1
80002f38:	b8 0b       	st.h	r12[0x0],r11
80002f3a:	c5 28       	rjmp	80002fde <fat_entry_longname+0x19e>
80002f3c:	30 4e       	mov	lr,4
80002f3e:	fc 0b 18 00 	cp.b	r11,lr
80002f42:	c0 31       	brne	80002f48 <fat_entry_longname+0x108>
80002f44:	2f d8       	sub	r8,-3
80002f46:	c4 38       	rjmp	80002fcc <fat_entry_longname+0x18c>
80002f48:	30 ae       	mov	lr,10
80002f4a:	fc 0b 18 00 	cp.b	r11,lr
80002f4e:	c0 31       	brne	80002f54 <fat_entry_longname+0x114>
80002f50:	2f e8       	sub	r8,-2
80002f52:	c3 d8       	rjmp	80002fcc <fat_entry_longname+0x18c>
80002f54:	30 ce       	mov	lr,12
80002f56:	fc 0b 18 00 	cp.b	r11,lr
80002f5a:	c3 91       	brne	80002fcc <fat_entry_longname+0x18c>
80002f5c:	f1 38 ff e2 	ld.ub	r8,r8[-30]
80002f60:	e2 18 00 40 	andl	r8,0x40,COH
80002f64:	c0 e1       	brne	80002f80 <fat_entry_longname+0x140>
80002f66:	10 9c       	mov	r12,r8
80002f68:	31 09       	mov	r9,16
80002f6a:	48 58       	lddpc	r8,80002f7c <fat_entry_longname+0x13c>
80002f6c:	b0 89       	st.b	r8[0x0],r9
80002f6e:	c3 98       	rjmp	80002fe0 <fat_entry_longname+0x1a0>
80002f70:	00 00       	add	r0,r0
80002f72:	06 e4       	st.h	--r3,r4
80002f74:	00 00       	add	r0,r0
80002f76:	09 2c       	ld.uh	r12,r4++
80002f78:	00 00       	add	r0,r0
80002f7a:	09 31       	ld.ub	r1,r4++
80002f7c:	00 00       	add	r0,r0
80002f7e:	09 30       	ld.ub	r0,r4++
80002f80:	58 0a       	cp.w	r10,0
80002f82:	c0 a0       	breq	80002f96 <fat_entry_longname+0x156>
80002f84:	49 88       	lddpc	r8,80002fe4 <fat_entry_longname+0x1a4>
80002f86:	11 89       	ld.ub	r9,r8[0x0]
80002f88:	30 08       	mov	r8,0
80002f8a:	f0 09 18 00 	cp.b	r9,r8
80002f8e:	c0 40       	breq	80002f96 <fat_entry_longname+0x156>
80002f90:	30 e8       	mov	r8,14
80002f92:	b8 08       	st.h	r12[0x0],r8
80002f94:	c2 58       	rjmp	80002fde <fat_entry_longname+0x19e>
80002f96:	2f fc       	sub	r12,-1
80002f98:	58 0a       	cp.w	r10,0
80002f9a:	c0 40       	breq	80002fa2 <fat_entry_longname+0x162>
80002f9c:	30 08       	mov	r8,0
80002f9e:	b8 88       	st.b	r12[0x0],r8
80002fa0:	c1 f8       	rjmp	80002fde <fat_entry_longname+0x19e>
80002fa2:	19 88       	ld.ub	r8,r12[0x0]
80002fa4:	35 cb       	mov	r11,92
80002fa6:	f4 08 19 00 	cp.h	r8,r10
80002faa:	5f 09       	sreq	r9
80002fac:	f6 08 19 00 	cp.h	r8,r11
80002fb0:	5f 0b       	sreq	r11
80002fb2:	f7 e9 10 09 	or	r9,r11,r9
80002fb6:	f4 09 18 00 	cp.b	r9,r10
80002fba:	c0 30       	breq	80002fc0 <fat_entry_longname+0x180>
80002fbc:	30 1c       	mov	r12,1
80002fbe:	c0 58       	rjmp	80002fc8 <fat_entry_longname+0x188>
80002fc0:	32 f9       	mov	r9,47
80002fc2:	f2 08 19 00 	cp.h	r8,r9
80002fc6:	5f 0c       	sreq	r12
80002fc8:	5c 5c       	castu.b	r12
80002fca:	c0 b8       	rjmp	80002fe0 <fat_entry_longname+0x1a0>
80002fcc:	09 8e       	ld.ub	lr,r4[0x0]
80002fce:	ee 0e 18 00 	cp.b	lr,r7
80002fd2:	c0 21       	brne	80002fd6 <fat_entry_longname+0x196>
80002fd4:	2f fc       	sub	r12,-1
80002fd6:	2f fb       	sub	r11,-1
80002fd8:	2f e8       	sub	r8,-2
80002fda:	5c 5b       	castu.b	r11
80002fdc:	c6 4b       	rjmp	80002ea4 <fat_entry_longname+0x64>
80002fde:	30 1c       	mov	r12,1
80002fe0:	2f ed       	sub	sp,-8
80002fe2:	d8 32       	popm	r0-r7,pc
80002fe4:	00 00       	add	r0,r0
80002fe6:	09 31       	ld.ub	r1,r4++

80002fe8 <fat_cache_reset>:
80002fe8:	3f f9       	mov	r9,-1
80002fea:	48 58       	lddpc	r8,80002ffc <fat_cache_reset+0x14>
80002fec:	b0 89       	st.b	r8[0x0],r9
80002fee:	30 09       	mov	r9,0
80002ff0:	f1 69 00 08 	st.b	r8[8],r9
80002ff4:	3f f9       	mov	r9,-1
80002ff6:	91 39       	st.w	r8[0xc],r9
80002ff8:	5e fc       	retal	r12
80002ffa:	d7 03       	nop
80002ffc:	00 00       	add	r0,r0
80002ffe:	09 68       	ld.uh	r8,--r4

80003000 <fat_check_nav_access_file>:
80003000:	d4 21       	pushm	r4-r7,lr
80003002:	49 78       	lddpc	r8,8000305c <fat_check_nav_access_file+0x5c>
80003004:	30 09       	mov	r9,0
80003006:	11 8a       	ld.ub	r10,r8[0x0]
80003008:	f2 0a 18 00 	cp.b	r10,r9
8000300c:	c2 60       	breq	80003058 <fat_check_nav_access_file+0x58>
8000300e:	49 5b       	lddpc	r11,80003060 <fat_check_nav_access_file+0x60>
80003010:	49 5a       	lddpc	r10,80003064 <fat_check_nav_access_file+0x64>
80003012:	17 87       	ld.ub	r7,r11[0x0]
80003014:	15 8e       	ld.ub	lr,r10[0x0]
80003016:	fc 07 18 00 	cp.b	r7,lr
8000301a:	c1 f1       	brne	80003058 <fat_check_nav_access_file+0x58>
8000301c:	76 8b       	ld.w	r11,r11[0x20]
8000301e:	74 8a       	ld.w	r10,r10[0x20]
80003020:	14 3b       	cp.w	r11,r10
80003022:	c1 b1       	brne	80003058 <fat_check_nav_access_file+0x58>
80003024:	49 1a       	lddpc	r10,80003068 <fat_check_nav_access_file+0x68>
80003026:	90 18       	ld.sh	r8,r8[0x2]
80003028:	94 1a       	ld.sh	r10,r10[0x2]
8000302a:	f0 0a 19 00 	cp.h	r10,r8
8000302e:	c1 51       	brne	80003058 <fat_check_nav_access_file+0x58>
80003030:	48 f8       	lddpc	r8,8000306c <fat_check_nav_access_file+0x6c>
80003032:	58 0c       	cp.w	r12,0
80003034:	c0 a0       	breq	80003048 <fat_check_nav_access_file+0x48>
80003036:	11 88       	ld.ub	r8,r8[0x0]
80003038:	f2 08 18 00 	cp.b	r8,r9
8000303c:	c0 e0       	breq	80003058 <fat_check_nav_access_file+0x58>
8000303e:	32 89       	mov	r9,40
80003040:	48 c8       	lddpc	r8,80003070 <fat_check_nav_access_file+0x70>
80003042:	30 0c       	mov	r12,0
80003044:	b0 89       	st.b	r8[0x0],r9
80003046:	d8 22       	popm	r4-r7,pc
80003048:	11 88       	ld.ub	r8,r8[0x0]
8000304a:	ed b8 00 01 	bld	r8,0x1
8000304e:	c0 51       	brne	80003058 <fat_check_nav_access_file+0x58>
80003050:	32 99       	mov	r9,41
80003052:	48 88       	lddpc	r8,80003070 <fat_check_nav_access_file+0x70>
80003054:	b0 89       	st.b	r8[0x0],r9
80003056:	d8 22       	popm	r4-r7,pc
80003058:	da 2a       	popm	r4-r7,pc,r12=1
8000305a:	d7 03       	nop
8000305c:	00 00       	add	r0,r0
8000305e:	09 28       	ld.uh	r8,r4++
80003060:	00 00       	add	r0,r0
80003062:	08 e4       	st.h	--r4,r4
80003064:	00 00       	add	r0,r0
80003066:	09 34       	ld.ub	r4,r4++
80003068:	00 00       	add	r0,r0
8000306a:	09 2c       	ld.uh	r12,r4++
8000306c:	00 00       	add	r0,r0
8000306e:	09 18       	ld.sh	r8,r4++
80003070:	00 00       	add	r0,r0
80003072:	09 30       	ld.ub	r0,r4++

80003074 <fat_invert_nav>:
80003074:	d4 21       	pushm	r4-r7,lr
80003076:	20 dd       	sub	sp,52
80003078:	58 0c       	cp.w	r12,0
8000307a:	c5 70       	breq	80003128 <fat_invert_nav+0xb4>
8000307c:	4a c8       	lddpc	r8,8000312c <fat_invert_nav+0xb8>
8000307e:	f0 ea 00 00 	ld.d	r10,r8[0]
80003082:	fa eb 00 00 	st.d	sp[0],r10
80003086:	f0 ea 00 08 	ld.d	r10,r8[8]
8000308a:	fa eb 00 08 	st.d	sp[8],r10
8000308e:	f0 ea 00 10 	ld.d	r10,r8[16]
80003092:	fa eb 00 10 	st.d	sp[16],r10
80003096:	f0 ea 00 18 	ld.d	r10,r8[24]
8000309a:	fa eb 00 18 	st.d	sp[24],r10
8000309e:	f0 ea 00 20 	ld.d	r10,r8[32]
800030a2:	f8 c6 00 01 	sub	r6,r12,1
800030a6:	fa eb 00 20 	st.d	sp[32],r10
800030aa:	10 9c       	mov	r12,r8
800030ac:	f0 ea 00 28 	ld.d	r10,r8[40]
800030b0:	fa eb 00 28 	st.d	sp[40],r10
800030b4:	70 c8       	ld.w	r8,r8[0x30]
800030b6:	50 c8       	stdsp	sp[0x30],r8
800030b8:	49 e8       	lddpc	r8,80003130 <fat_invert_nav+0xbc>
800030ba:	1a 97       	mov	r7,sp
800030bc:	5c 56       	castu.b	r6
800030be:	33 4a       	mov	r10,52
800030c0:	ec 0a 02 45 	mul	r5,r6,r10
800030c4:	10 05       	add	r5,r8
800030c6:	0a 9b       	mov	r11,r5
800030c8:	e0 a0 1c 78 	rcall	800069b8 <memcpy>
800030cc:	0a 9c       	mov	r12,r5
800030ce:	33 4a       	mov	r10,52
800030d0:	1a 9b       	mov	r11,sp
800030d2:	e0 a0 1c 73 	rcall	800069b8 <memcpy>
800030d6:	49 88       	lddpc	r8,80003134 <fat_invert_nav+0xc0>
800030d8:	f0 e4 00 00 	ld.d	r4,r8[0]
800030dc:	10 9c       	mov	r12,r8
800030de:	fa e5 00 00 	st.d	sp[0],r4
800030e2:	f0 e8 00 08 	ld.d	r8,r8[8]
800030e6:	fa e9 00 08 	st.d	sp[8],r8
800030ea:	49 48       	lddpc	r8,80003138 <fat_invert_nav+0xc4>
800030ec:	31 0a       	mov	r10,16
800030ee:	ec 05 15 04 	lsl	r5,r6,0x4
800030f2:	10 05       	add	r5,r8
800030f4:	0a 9b       	mov	r11,r5
800030f6:	e0 a0 1c 61 	rcall	800069b8 <memcpy>
800030fa:	31 0a       	mov	r10,16
800030fc:	1a 9b       	mov	r11,sp
800030fe:	0a 9c       	mov	r12,r5
80003100:	e0 a0 1c 5c 	rcall	800069b8 <memcpy>
80003104:	30 4a       	mov	r10,4
80003106:	48 eb       	lddpc	r11,8000313c <fat_invert_nav+0xc8>
80003108:	1a 9c       	mov	r12,sp
8000310a:	e0 a0 1c 57 	rcall	800069b8 <memcpy>
8000310e:	48 d8       	lddpc	r8,80003140 <fat_invert_nav+0xcc>
80003110:	30 4a       	mov	r10,4
80003112:	f0 06 00 26 	add	r6,r8,r6<<0x2
80003116:	48 ac       	lddpc	r12,8000313c <fat_invert_nav+0xc8>
80003118:	0c 9b       	mov	r11,r6
8000311a:	e0 a0 1c 4f 	rcall	800069b8 <memcpy>
8000311e:	1a 9b       	mov	r11,sp
80003120:	0c 9c       	mov	r12,r6
80003122:	30 4a       	mov	r10,4
80003124:	e0 a0 1c 4a 	rcall	800069b8 <memcpy>
80003128:	2f 3d       	sub	sp,-52
8000312a:	d8 22       	popm	r4-r7,pc
8000312c:	00 00       	add	r0,r0
8000312e:	08 e4       	st.h	--r4,r4
80003130:	00 00       	add	r0,r0
80003132:	09 34       	ld.ub	r4,r4++
80003134:	00 00       	add	r0,r0
80003136:	06 a8       	st.w	r3++,r8
80003138:	00 00       	add	r0,r0
8000313a:	09 18       	ld.sh	r8,r4++
8000313c:	00 00       	add	r0,r0
8000313e:	09 2c       	ld.uh	r12,r4++
80003140:	00 00       	add	r0,r0
80003142:	09 28       	ld.uh	r8,r4++

80003144 <fat_cache_flush>:
80003144:	d4 21       	pushm	r4-r7,lr
80003146:	49 05       	lddpc	r5,80003184 <fat_cache_flush+0x40>
80003148:	30 18       	mov	r8,1
8000314a:	eb 37 00 08 	ld.ub	r7,r5[8]
8000314e:	f0 07 18 00 	cp.b	r7,r8
80003152:	c1 81       	brne	80003182 <fat_cache_flush+0x3e>
80003154:	30 08       	mov	r8,0
80003156:	0b 8c       	ld.ub	r12,r5[0x0]
80003158:	eb 68 00 08 	st.b	r5[8],r8
8000315c:	e0 a0 17 92 	rcall	80006080 <mem_wr_protect>
80003160:	18 96       	mov	r6,r12
80003162:	c0 60       	breq	8000316e <fat_cache_flush+0x2a>
80003164:	31 49       	mov	r9,20
80003166:	48 98       	lddpc	r8,80003188 <fat_cache_flush+0x44>
80003168:	30 0c       	mov	r12,0
8000316a:	b0 89       	st.b	r8[0x0],r9
8000316c:	d8 22       	popm	r4-r7,pc
8000316e:	0b 8c       	ld.ub	r12,r5[0x0]
80003170:	48 7a       	lddpc	r10,8000318c <fat_cache_flush+0x48>
80003172:	6a 1b       	ld.w	r11,r5[0x4]
80003174:	e0 a0 17 98 	rcall	800060a4 <ram_2_memory>
80003178:	c0 50       	breq	80003182 <fat_cache_flush+0x3e>
8000317a:	48 48       	lddpc	r8,80003188 <fat_cache_flush+0x44>
8000317c:	0c 9c       	mov	r12,r6
8000317e:	b0 87       	st.b	r8[0x0],r7
80003180:	d8 22       	popm	r4-r7,pc
80003182:	da 2a       	popm	r4-r7,pc,r12=1
80003184:	00 00       	add	r0,r0
80003186:	09 68       	ld.uh	r8,--r4
80003188:	00 00       	add	r0,r0
8000318a:	09 30       	ld.ub	r0,r4++
8000318c:	00 00       	add	r0,r0
8000318e:	06 e4       	st.h	--r3,r4

80003190 <fat_cache_read_sector>:
80003190:	d4 21       	pushm	r4-r7,lr
80003192:	49 88       	lddpc	r8,800031f0 <fat_cache_read_sector+0x60>
80003194:	49 89       	lddpc	r9,800031f4 <fat_cache_read_sector+0x64>
80003196:	18 97       	mov	r7,r12
80003198:	13 89       	ld.ub	r9,r9[0x0]
8000319a:	11 8a       	ld.ub	r10,r8[0x0]
8000319c:	f2 0a 18 00 	cp.b	r10,r9
800031a0:	c0 71       	brne	800031ae <fat_cache_read_sector+0x1e>
800031a2:	70 19       	ld.w	r9,r8[0x4]
800031a4:	49 58       	lddpc	r8,800031f8 <fat_cache_read_sector+0x68>
800031a6:	70 08       	ld.w	r8,r8[0x0]
800031a8:	10 39       	cp.w	r9,r8
800031aa:	c0 21       	brne	800031ae <fat_cache_read_sector+0x1e>
800031ac:	da 2a       	popm	r4-r7,pc,r12=1
800031ae:	cc bf       	rcall	80003144 <fat_cache_flush>
800031b0:	c1 e0       	breq	800031ec <fat_cache_read_sector+0x5c>
800031b2:	3f f9       	mov	r9,-1
800031b4:	48 f8       	lddpc	r8,800031f0 <fat_cache_read_sector+0x60>
800031b6:	b0 89       	st.b	r8[0x0],r9
800031b8:	30 09       	mov	r9,0
800031ba:	f1 69 00 08 	st.b	r8[8],r9
800031be:	3f f9       	mov	r9,-1
800031c0:	91 39       	st.w	r8[0xc],r9
800031c2:	48 e9       	lddpc	r9,800031f8 <fat_cache_read_sector+0x68>
800031c4:	72 0b       	ld.w	r11,r9[0x0]
800031c6:	91 1b       	st.w	r8[0x4],r11
800031c8:	58 07       	cp.w	r7,0
800031ca:	c0 c0       	breq	800031e2 <fat_cache_read_sector+0x52>
800031cc:	48 a8       	lddpc	r8,800031f4 <fat_cache_read_sector+0x64>
800031ce:	48 ca       	lddpc	r10,800031fc <fat_cache_read_sector+0x6c>
800031d0:	11 8c       	ld.ub	r12,r8[0x0]
800031d2:	e0 a0 17 9b 	rcall	80006108 <memory_2_ram>
800031d6:	c0 60       	breq	800031e2 <fat_cache_read_sector+0x52>
800031d8:	30 19       	mov	r9,1
800031da:	48 a8       	lddpc	r8,80003200 <fat_cache_read_sector+0x70>
800031dc:	30 0c       	mov	r12,0
800031de:	b0 89       	st.b	r8[0x0],r9
800031e0:	d8 22       	popm	r4-r7,pc
800031e2:	48 58       	lddpc	r8,800031f4 <fat_cache_read_sector+0x64>
800031e4:	30 1c       	mov	r12,1
800031e6:	11 89       	ld.ub	r9,r8[0x0]
800031e8:	48 28       	lddpc	r8,800031f0 <fat_cache_read_sector+0x60>
800031ea:	b0 89       	st.b	r8[0x0],r9
800031ec:	d8 22       	popm	r4-r7,pc
800031ee:	d7 03       	nop
800031f0:	00 00       	add	r0,r0
800031f2:	09 68       	ld.uh	r8,--r4
800031f4:	00 00       	add	r0,r0
800031f6:	08 e4       	st.h	--r4,r4
800031f8:	00 00       	add	r0,r0
800031fa:	06 a4       	st.w	r3++,r4
800031fc:	00 00       	add	r0,r0
800031fe:	06 e4       	st.h	--r3,r4
80003200:	00 00       	add	r0,r0
80003202:	09 30       	ld.ub	r0,r4++

80003204 <fat_cluster_readnext>:
80003204:	d4 01       	pushm	lr
80003206:	49 c8       	lddpc	r8,80003274 <fat_cluster_readnext+0x70>
80003208:	30 39       	mov	r9,3
8000320a:	11 8a       	ld.ub	r10,r8[0x0]
8000320c:	49 b8       	lddpc	r8,80003278 <fat_cluster_readnext+0x74>
8000320e:	f2 0a 18 00 	cp.b	r10,r9
80003212:	c0 41       	brne	8000321a <fat_cluster_readnext+0x16>
80003214:	90 09       	ld.sh	r9,r8[0x0]
80003216:	2f c9       	sub	r9,-4
80003218:	c0 38       	rjmp	8000321e <fat_cluster_readnext+0x1a>
8000321a:	90 09       	ld.sh	r9,r8[0x0]
8000321c:	2f e9       	sub	r9,-2
8000321e:	b0 09       	st.h	r8[0x0],r9
80003220:	49 69       	lddpc	r9,80003278 <fat_cluster_readnext+0x74>
80003222:	e0 68 02 00 	mov	r8,512
80003226:	92 0a       	ld.sh	r10,r9[0x0]
80003228:	f0 0a 19 00 	cp.h	r10,r8
8000322c:	c0 a1       	brne	80003240 <fat_cluster_readnext+0x3c>
8000322e:	49 48       	lddpc	r8,8000327c <fat_cluster_readnext+0x78>
80003230:	30 0a       	mov	r10,0
80003232:	b2 0a       	st.h	r9[0x0],r10
80003234:	70 09       	ld.w	r9,r8[0x0]
80003236:	2f f9       	sub	r9,-1
80003238:	30 1c       	mov	r12,1
8000323a:	91 09       	st.w	r8[0x0],r9
8000323c:	ca af       	rcall	80003190 <fat_cache_read_sector>
8000323e:	c1 90       	breq	80003270 <fat_cluster_readnext+0x6c>
80003240:	48 e9       	lddpc	r9,80003278 <fat_cluster_readnext+0x74>
80003242:	49 0b       	lddpc	r11,80003280 <fat_cluster_readnext+0x7c>
80003244:	92 8a       	ld.uh	r10,r9[0x0]
80003246:	f6 0a 00 09 	add	r9,r11,r10
8000324a:	f6 0a 07 0a 	ld.ub	r10,r11[r10]
8000324e:	48 e8       	lddpc	r8,80003284 <fat_cluster_readnext+0x80>
80003250:	2f c8       	sub	r8,-4
80003252:	b0 ba       	st.b	r8[0x3],r10
80003254:	13 9a       	ld.ub	r10,r9[0x1]
80003256:	b0 aa       	st.b	r8[0x2],r10
80003258:	48 7a       	lddpc	r10,80003274 <fat_cluster_readnext+0x70>
8000325a:	15 8b       	ld.ub	r11,r10[0x0]
8000325c:	30 3a       	mov	r10,3
8000325e:	f4 0b 18 00 	cp.b	r11,r10
80003262:	c0 20       	breq	80003266 <fat_cluster_readnext+0x62>
80003264:	da 0a       	popm	pc,r12=1
80003266:	13 ba       	ld.ub	r10,r9[0x3]
80003268:	30 1c       	mov	r12,1
8000326a:	b0 8a       	st.b	r8[0x0],r10
8000326c:	13 a9       	ld.ub	r9,r9[0x2]
8000326e:	b0 99       	st.b	r8[0x1],r9
80003270:	d8 02       	popm	pc
80003272:	d7 03       	nop
80003274:	00 00       	add	r0,r0
80003276:	09 2c       	ld.uh	r12,r4++
80003278:	00 00       	add	r0,r0
8000327a:	06 b8       	st.h	r3++,r8
8000327c:	00 00       	add	r0,r0
8000327e:	06 a4       	st.w	r3++,r4
80003280:	00 00       	add	r0,r0
80003282:	06 e4       	st.h	--r3,r4
80003284:	00 00       	add	r0,r0
80003286:	09 80       	ld.ub	r0,r4[0x0]

80003288 <fat_cluster_val>:
80003288:	d4 31       	pushm	r0-r7,lr
8000328a:	4c 68       	lddpc	r8,800033a0 <fat_cluster_val+0x118>
8000328c:	18 97       	mov	r7,r12
8000328e:	11 88       	ld.ub	r8,r8[0x0]
80003290:	30 39       	mov	r9,3
80003292:	f2 08 18 00 	cp.b	r8,r9
80003296:	c0 b1       	brne	800032ac <fat_cluster_val+0x24>
80003298:	4c 38       	lddpc	r8,800033a4 <fat_cluster_val+0x11c>
8000329a:	4c 49       	lddpc	r9,800033a8 <fat_cluster_val+0x120>
8000329c:	11 ba       	ld.ub	r10,r8[0x3]
8000329e:	70 08       	ld.w	r8,r8[0x0]
800032a0:	f5 da c0 07 	bfextu	r10,r10,0x0,0x7
800032a4:	a7 98       	lsr	r8,0x7
800032a6:	a3 6a       	lsl	r10,0x2
800032a8:	b2 0a       	st.h	r9[0x0],r10
800032aa:	c2 08       	rjmp	800032ea <fat_cluster_val+0x62>
800032ac:	30 29       	mov	r9,2
800032ae:	f2 08 18 00 	cp.b	r8,r9
800032b2:	c0 81       	brne	800032c2 <fat_cluster_val+0x3a>
800032b4:	4b c8       	lddpc	r8,800033a4 <fat_cluster_val+0x11c>
800032b6:	4b d9       	lddpc	r9,800033a8 <fat_cluster_val+0x120>
800032b8:	11 ba       	ld.ub	r10,r8[0x3]
800032ba:	a1 7a       	lsl	r10,0x1
800032bc:	b2 0a       	st.h	r9[0x0],r10
800032be:	11 a8       	ld.ub	r8,r8[0x2]
800032c0:	c1 58       	rjmp	800032ea <fat_cluster_val+0x62>
800032c2:	30 19       	mov	r9,1
800032c4:	f2 08 18 00 	cp.b	r8,r9
800032c8:	c0 30       	breq	800032ce <fat_cluster_val+0x46>
800032ca:	30 08       	mov	r8,0
800032cc:	c0 f8       	rjmp	800032ea <fat_cluster_val+0x62>
800032ce:	4b 79       	lddpc	r9,800033a8 <fat_cluster_val+0x120>
800032d0:	4b 58       	lddpc	r8,800033a4 <fat_cluster_val+0x11c>
800032d2:	70 08       	ld.w	r8,r8[0x0]
800032d4:	f5 d8 c0 2f 	bfextu	r10,r8,0x1,0xf
800032d8:	f4 08 00 08 	add	r8,r10,r8
800032dc:	b2 08       	st.h	r9[0x0],r8
800032de:	f1 d8 c1 08 	bfextu	r8,r8,0x8,0x8
800032e2:	f5 d8 c0 01 	bfextu	r10,r8,0x0,0x1
800032e6:	a1 98       	lsr	r8,0x1
800032e8:	b2 8a       	st.b	r9[0x0],r10
800032ea:	4b 19       	lddpc	r9,800033ac <fat_cluster_val+0x124>
800032ec:	72 49       	ld.w	r9,r9[0x10]
800032ee:	12 08       	add	r8,r9
800032f0:	4b 06       	lddpc	r6,800033b0 <fat_cluster_val+0x128>
800032f2:	30 1c       	mov	r12,1
800032f4:	8d 08       	st.w	r6[0x0],r8
800032f6:	c4 df       	rcall	80003190 <fat_cache_read_sector>
800032f8:	c5 20       	breq	8000339c <fat_cluster_val+0x114>
800032fa:	4a c8       	lddpc	r8,800033a8 <fat_cluster_val+0x120>
800032fc:	4a 9a       	lddpc	r10,800033a0 <fat_cluster_val+0x118>
800032fe:	90 09       	ld.sh	r9,r8[0x0]
80003300:	4a d5       	lddpc	r5,800033b4 <fat_cluster_val+0x12c>
80003302:	f1 d9 c0 10 	bfextu	r8,r9,0x0,0x10
80003306:	0a 08       	add	r8,r5
80003308:	15 8b       	ld.ub	r11,r10[0x0]
8000330a:	11 b4       	ld.ub	r4,r8[0x3]
8000330c:	11 82       	ld.ub	r2,r8[0x0]
8000330e:	11 9a       	ld.ub	r10,r8[0x1]
80003310:	11 a3       	ld.ub	r3,r8[0x2]
80003312:	30 18       	mov	r8,1
80003314:	f0 0b 18 00 	cp.b	r11,r8
80003318:	c0 d1       	brne	80003332 <fat_cluster_val+0xaa>
8000331a:	e0 68 01 ff 	mov	r8,511
8000331e:	f0 09 19 00 	cp.h	r9,r8
80003322:	c0 81       	brne	80003332 <fat_cluster_val+0xaa>
80003324:	6c 08       	ld.w	r8,r6[0x0]
80003326:	2f f8       	sub	r8,-1
80003328:	30 1c       	mov	r12,1
8000332a:	8d 08       	st.w	r6[0x0],r8
8000332c:	c3 2f       	rcall	80003190 <fat_cache_read_sector>
8000332e:	c3 70       	breq	8000339c <fat_cluster_val+0x114>
80003330:	0b 8a       	ld.ub	r10,r5[0x0]
80003332:	58 07       	cp.w	r7,0
80003334:	c2 f1       	brne	80003392 <fat_cluster_val+0x10a>
80003336:	49 c9       	lddpc	r9,800033a4 <fat_cluster_val+0x11c>
80003338:	f2 cb ff f9 	sub	r11,r9,-7
8000333c:	b6 82       	st.b	r11[0x0],r2
8000333e:	f2 c8 ff fa 	sub	r8,r9,-6
80003342:	b0 8a       	st.b	r8[0x0],r10
80003344:	49 7a       	lddpc	r10,800033a0 <fat_cluster_val+0x118>
80003346:	30 36       	mov	r6,3
80003348:	15 8c       	ld.ub	r12,r10[0x0]
8000334a:	f2 ca ff fc 	sub	r10,r9,-4
8000334e:	ec 0c 18 00 	cp.b	r12,r6
80003352:	c0 61       	brne	8000335e <fat_cluster_val+0xd6>
80003354:	e9 d4 c0 04 	bfextu	r4,r4,0x0,0x4
80003358:	b4 93       	st.b	r10[0x1],r3
8000335a:	b4 84       	st.b	r10[0x0],r4
8000335c:	c1 a8       	rjmp	80003390 <fat_cluster_val+0x108>
8000335e:	b4 87       	st.b	r10[0x0],r7
80003360:	b4 97       	st.b	r10[0x1],r7
80003362:	0e 9e       	mov	lr,r7
80003364:	30 1a       	mov	r10,1
80003366:	f4 0c 18 00 	cp.b	r12,r10
8000336a:	c1 31       	brne	80003390 <fat_cluster_val+0x108>
8000336c:	13 ba       	ld.ub	r10,r9[0x3]
8000336e:	11 89       	ld.ub	r9,r8[0x0]
80003370:	f5 da c0 01 	bfextu	r10,r10,0x0,0x1
80003374:	c0 b0       	breq	8000338a <fat_cluster_val+0x102>
80003376:	f2 0a 16 04 	lsr	r10,r9,0x4
8000337a:	b0 8a       	st.b	r8[0x0],r10
8000337c:	a5 69       	lsl	r9,0x4
8000337e:	17 88       	ld.ub	r8,r11[0x0]
80003380:	a5 88       	lsr	r8,0x4
80003382:	f0 09 00 09 	add	r9,r8,r9
80003386:	b6 89       	st.b	r11[0x0],r9
80003388:	c0 48       	rjmp	80003390 <fat_cluster_val+0x108>
8000338a:	f3 d9 c0 04 	bfextu	r9,r9,0x0,0x4
8000338e:	b0 89       	st.b	r8[0x0],r9
80003390:	da 3a       	popm	r0-r7,pc,r12=1
80003392:	32 29       	mov	r9,34
80003394:	48 98       	lddpc	r8,800033b8 <fat_cluster_val+0x130>
80003396:	30 0c       	mov	r12,0
80003398:	b0 89       	st.b	r8[0x0],r9
8000339a:	d8 32       	popm	r0-r7,pc
8000339c:	d8 3a       	popm	r0-r7,pc,r12=0
8000339e:	d7 03       	nop
800033a0:	00 00       	add	r0,r0
800033a2:	09 2c       	ld.uh	r12,r4++
800033a4:	00 00       	add	r0,r0
800033a6:	09 80       	ld.ub	r0,r4[0x0]
800033a8:	00 00       	add	r0,r0
800033aa:	06 b8       	st.h	r3++,r8
800033ac:	00 00       	add	r0,r0
800033ae:	08 e4       	st.h	--r4,r4
800033b0:	00 00       	add	r0,r0
800033b2:	06 a4       	st.w	r3++,r4
800033b4:	00 00       	add	r0,r0
800033b6:	06 e4       	st.h	--r3,r4
800033b8:	00 00       	add	r0,r0
800033ba:	09 30       	ld.ub	r0,r4++

800033bc <fat_cluster_list>:
800033bc:	d4 31       	pushm	r0-r7,lr
800033be:	20 2d       	sub	sp,8
800033c0:	30 89       	mov	r9,8
800033c2:	4b c8       	lddpc	r8,800034b0 <fat_cluster_list+0xf4>
800033c4:	b0 89       	st.b	r8[0x0],r9
800033c6:	30 36       	mov	r6,3
800033c8:	4b b9       	lddpc	r9,800034b4 <fat_cluster_list+0xf8>
800033ca:	ec 0c 18 00 	cp.b	r12,r6
800033ce:	5f 05       	sreq	r5
800033d0:	13 82       	ld.ub	r2,r9[0x0]
800033d2:	18 97       	mov	r7,r12
800033d4:	ec 02 18 00 	cp.b	r2,r6
800033d8:	5f 03       	sreq	r3
800033da:	eb e3 00 0a 	and	r10,r5,r3
800033de:	e0 81 00 ee 	brne	800035ba <fat_cluster_list+0x1fe>
800033e2:	4b 69       	lddpc	r9,800034b8 <fat_cluster_list+0xfc>
800033e4:	72 04       	ld.w	r4,r9[0x0]
800033e6:	58 04       	cp.w	r4,0
800033e8:	c2 41       	brne	80003430 <fat_cluster_list+0x74>
800033ea:	58 05       	cp.w	r5,0
800033ec:	e0 81 00 e7 	brne	800035ba <fat_cluster_list+0x1fe>
800033f0:	20 12       	sub	r2,1
800033f2:	30 1a       	mov	r10,1
800033f4:	f4 02 18 00 	cp.b	r2,r10
800033f8:	e0 8b 00 15 	brhi	80003422 <fat_cluster_list+0x66>
800033fc:	4b 0b       	lddpc	r11,800034bc <fat_cluster_list+0x100>
800033fe:	72 1a       	ld.w	r10,r9[0x4]
80003400:	f7 1c 00 1a 	ld.uh	r12,r11[26]
80003404:	18 3a       	cp.w	r10,r12
80003406:	c0 a2       	brcc	8000341a <fat_cluster_list+0x5e>
80003408:	14 1c       	sub	r12,r10
8000340a:	f7 18 00 18 	ld.uh	r8,r11[24]
8000340e:	93 1c       	st.w	r9[0x4],r12
80003410:	76 4b       	ld.w	r11,r11[0x10]
80003412:	16 0a       	add	r10,r11
80003414:	10 0a       	add	r10,r8
80003416:	93 0a       	st.w	r9[0x0],r10
80003418:	cc 48       	rjmp	800035a0 <fat_cluster_list+0x1e4>
8000341a:	31 a9       	mov	r9,26
8000341c:	0a 9c       	mov	r12,r5
8000341e:	b0 89       	st.b	r8[0x0],r9
80003420:	cc e8       	rjmp	800035bc <fat_cluster_list+0x200>
80003422:	58 03       	cp.w	r3,0
80003424:	c0 b0       	breq	8000343a <fat_cluster_list+0x7e>
80003426:	4a 68       	lddpc	r8,800034bc <fat_cluster_list+0x100>
80003428:	70 69       	ld.w	r9,r8[0x18]
8000342a:	4a 68       	lddpc	r8,800034c0 <fat_cluster_list+0x104>
8000342c:	91 09       	st.w	r8[0x0],r9
8000342e:	c0 68       	rjmp	8000343a <fat_cluster_list+0x7e>
80003430:	4a 48       	lddpc	r8,800034c0 <fat_cluster_list+0x104>
80003432:	91 04       	st.w	r8[0x0],r4
80003434:	ec 0c 18 00 	cp.b	r12,r6
80003438:	c0 60       	breq	80003444 <fat_cluster_list+0x88>
8000343a:	16 9c       	mov	r12,r11
8000343c:	fe b0 fb 5a 	rcall	80002af0 <fat_cache_clusterlist_update_read>
80003440:	c1 00       	breq	80003460 <fat_cluster_list+0xa4>
80003442:	ca f8       	rjmp	800035a0 <fat_cluster_list+0x1e4>
80003444:	4a 08       	lddpc	r8,800034c4 <fat_cluster_list+0x108>
80003446:	3f f9       	mov	r9,-1
80003448:	f1 6a 00 14 	st.b	r8[20],r10
8000344c:	f1 69 00 15 	st.b	r8[21],r9
80003450:	b0 a9       	st.b	r8[0x2],r9
80003452:	b0 99       	st.b	r8[0x1],r9
80003454:	f1 69 00 16 	st.b	r8[22],r9
80003458:	49 c9       	lddpc	r9,800034c8 <fat_cluster_list+0x10c>
8000345a:	b2 8a       	st.b	r9[0x0],r10
8000345c:	30 19       	mov	r9,1
8000345e:	b0 89       	st.b	r8[0x0],r9
80003460:	49 62       	lddpc	r2,800034b8 <fat_cluster_list+0xfc>
80003462:	3f f8       	mov	r8,-1
80003464:	a4 88       	st.b	r2[0x0],r8
80003466:	49 76       	lddpc	r6,800034c0 <fat_cluster_list+0x104>
80003468:	e4 c8 ff f9 	sub	r8,r2,-7
8000346c:	04 95       	mov	r5,r2
8000346e:	49 44       	lddpc	r4,800034bc <fat_cluster_list+0x100>
80003470:	30 21       	mov	r1,2
80003472:	50 18       	stdsp	sp[0x4],r8
80003474:	30 13       	mov	r3,1
80003476:	49 18       	lddpc	r8,800034b8 <fat_cluster_list+0xfc>
80003478:	6a 1a       	ld.w	r10,r5[0x4]
8000347a:	09 99       	ld.ub	r9,r4[0x1]
8000347c:	12 3a       	cp.w	r10,r9
8000347e:	c4 a2       	brcc	80003512 <fat_cluster_list+0x156>
80003480:	68 5c       	ld.w	r12,r4[0x14]
80003482:	6c 00       	ld.w	r0,r6[0x0]
80003484:	68 4b       	ld.w	r11,r4[0x10]
80003486:	f4 0b 00 0b 	add	r11,r10,r11
8000348a:	18 0b       	add	r11,r12
8000348c:	e0 cc 00 02 	sub	r12,r0,2
80003490:	f8 09 03 4b 	mac	r11,r12,r9
80003494:	8b 0b       	st.w	r5[0x0],r11
80003496:	e2 07 18 00 	cp.b	r7,r1
8000349a:	c1 91       	brne	800034cc <fat_cluster_list+0x110>
8000349c:	14 19       	sub	r9,r10
8000349e:	50 08       	stdsp	sp[0x0],r8
800034a0:	91 19       	st.w	r8[0x4],r9
800034a2:	fe b0 fa dd 	rcall	80002a5c <fat_cache_clusterlist_update_finish>
800034a6:	30 1c       	mov	r12,1
800034a8:	40 08       	lddsp	r8,sp[0x0]
800034aa:	91 1c       	st.w	r8[0x4],r12
800034ac:	c8 88       	rjmp	800035bc <fat_cluster_list+0x200>
800034ae:	d7 03       	nop
800034b0:	00 00       	add	r0,r0
800034b2:	09 30       	ld.ub	r0,r4++
800034b4:	00 00       	add	r0,r0
800034b6:	09 2c       	ld.uh	r12,r4++
800034b8:	00 00       	add	r0,r0
800034ba:	09 88       	ld.ub	r8,r4[0x0]
800034bc:	00 00       	add	r0,r0
800034be:	08 e4       	st.h	--r4,r4
800034c0:	00 00       	add	r0,r0
800034c2:	09 80       	ld.ub	r0,r4[0x0]
800034c4:	00 00       	add	r0,r0
800034c6:	06 bc       	st.h	r3++,r12
800034c8:	00 00       	add	r0,r0
800034ca:	09 32       	ld.ub	r2,r4++
800034cc:	40 1a       	lddsp	r10,sp[0x4]
800034ce:	15 88       	ld.ub	r8,r10[0x0]
800034d0:	10 19       	sub	r9,r8
800034d2:	8b 19       	st.w	r5[0x4],r9
800034d4:	e6 07 18 00 	cp.b	r7,r3
800034d8:	c1 d1       	brne	80003512 <fat_cluster_list+0x156>
800034da:	4b ab       	lddpc	r11,800035c0 <fat_cluster_list+0x204>
800034dc:	17 88       	ld.ub	r8,r11[0x0]
800034de:	e6 08 18 00 	cp.b	r8,r3
800034e2:	c1 80       	breq	80003512 <fat_cluster_list+0x156>
800034e4:	30 0c       	mov	r12,0
800034e6:	cd 1e       	rcall	80003288 <fat_cluster_val>
800034e8:	58 0c       	cp.w	r12,0
800034ea:	c6 80       	breq	800035ba <fat_cluster_list+0x1fe>
800034ec:	6c 08       	ld.w	r8,r6[0x0]
800034ee:	f0 c9 ff ff 	sub	r9,r8,-1
800034f2:	8d 09       	st.w	r6[0x0],r9
800034f4:	6c 1a       	ld.w	r10,r6[0x4]
800034f6:	14 39       	cp.w	r9,r10
800034f8:	c0 b0       	breq	8000350e <fat_cluster_list+0x152>
800034fa:	f0 00 01 00 	sub	r0,r8,r0
800034fe:	4b 2a       	lddpc	r10,800035c4 <fat_cluster_list+0x208>
80003500:	09 99       	ld.ub	r9,r4[0x1]
80003502:	95 08       	st.w	r10[0x0],r8
80003504:	b3 30       	mul	r0,r9
80003506:	6a 18       	ld.w	r8,r5[0x4]
80003508:	10 00       	add	r0,r8
8000350a:	8b 10       	st.w	r5[0x4],r0
8000350c:	c0 38       	rjmp	80003512 <fat_cluster_list+0x156>
8000350e:	c7 be       	rcall	80003204 <fat_cluster_readnext>
80003510:	ce cb       	rjmp	800034e8 <fat_cluster_list+0x12c>
80003512:	30 0c       	mov	r12,0
80003514:	cb ae       	rcall	80003288 <fat_cluster_val>
80003516:	c5 20       	breq	800035ba <fat_cluster_list+0x1fe>
80003518:	fe b0 fa 5e 	rcall	800029d4 <fat_checkcluster>
8000351c:	e6 0c 18 00 	cp.b	r12,r3
80003520:	c4 d0       	breq	800035ba <fat_cluster_list+0x1fe>
80003522:	05 89       	ld.ub	r9,r2[0x0]
80003524:	3f f8       	mov	r8,-1
80003526:	f0 09 18 00 	cp.b	r9,r8
8000352a:	c3 11       	brne	8000358c <fat_cluster_list+0x1d0>
8000352c:	4a 78       	lddpc	r8,800035c8 <fat_cluster_list+0x20c>
8000352e:	4a 89       	lddpc	r9,800035cc <fat_cluster_list+0x210>
80003530:	e2 0c 18 00 	cp.b	r12,r1
80003534:	c2 71       	brne	80003582 <fat_cluster_list+0x1c6>
80003536:	72 4c       	ld.w	r12,r9[0x10]
80003538:	70 16       	ld.w	r6,r8[0x4]
8000353a:	13 9a       	ld.ub	r10,r9[0x1]
8000353c:	91 1a       	st.w	r8[0x4],r10
8000353e:	72 59       	ld.w	r9,r9[0x14]
80003540:	4a 4b       	lddpc	r11,800035d0 <fat_cluster_list+0x214>
80003542:	18 09       	add	r9,r12
80003544:	17 8b       	ld.ub	r11,r11[0x0]
80003546:	4a 45       	lddpc	r5,800035d4 <fat_cluster_list+0x218>
80003548:	f6 0b 00 2b 	add	r11,r11,r11<<0x2
8000354c:	ea 0b 00 2b 	add	r11,r5,r11<<0x2
80003550:	76 2c       	ld.w	r12,r11[0x8]
80003552:	0c 1c       	sub	r12,r6
80003554:	97 2c       	st.w	r11[0x8],r12
80003556:	49 cb       	lddpc	r11,800035c4 <fat_cluster_list+0x208>
80003558:	76 0b       	ld.w	r11,r11[0x0]
8000355a:	20 2b       	sub	r11,2
8000355c:	b7 3a       	mul	r10,r11
8000355e:	f2 0a 00 0a 	add	r10,r9,r10
80003562:	91 0a       	st.w	r8[0x0],r10
80003564:	30 38       	mov	r8,3
80003566:	f0 07 18 00 	cp.b	r7,r8
8000356a:	c0 30       	breq	80003570 <fat_cluster_list+0x1b4>
8000356c:	fe b0 fa 78 	rcall	80002a5c <fat_cache_clusterlist_update_finish>
80003570:	49 68       	lddpc	r8,800035c8 <fat_cluster_list+0x20c>
80003572:	49 59       	lddpc	r9,800035c4 <fat_cluster_list+0x208>
80003574:	72 09       	ld.w	r9,r9[0x0]
80003576:	91 16       	st.w	r8[0x4],r6
80003578:	91 09       	st.w	r8[0x0],r9
8000357a:	31 a9       	mov	r9,26
8000357c:	49 78       	lddpc	r8,800035d8 <fat_cluster_list+0x21c>
8000357e:	b0 89       	st.b	r8[0x0],r9
80003580:	c1 d8       	rjmp	800035ba <fat_cluster_list+0x1fe>
80003582:	6a 19       	ld.w	r9,r5[0x4]
80003584:	09 98       	ld.ub	r8,r4[0x1]
80003586:	10 19       	sub	r9,r8
80003588:	8b 19       	st.w	r5[0x4],r9
8000358a:	c1 58       	rjmp	800035b4 <fat_cluster_list+0x1f8>
8000358c:	e6 07 18 00 	cp.b	r7,r3
80003590:	c0 a1       	brne	800035a4 <fat_cluster_list+0x1e8>
80003592:	6c 09       	ld.w	r9,r6[0x0]
80003594:	6c 18       	ld.w	r8,r6[0x4]
80003596:	2f f9       	sub	r9,-1
80003598:	10 39       	cp.w	r9,r8
8000359a:	c0 50       	breq	800035a4 <fat_cluster_list+0x1e8>
8000359c:	fe b0 fa 60 	rcall	80002a5c <fat_cache_clusterlist_update_finish>
800035a0:	30 1c       	mov	r12,1
800035a2:	c0 d8       	rjmp	800035bc <fat_cluster_list+0x200>
800035a4:	e2 0c 18 00 	cp.b	r12,r1
800035a8:	cf a0       	breq	8000359c <fat_cluster_list+0x1e0>
800035aa:	6a 18       	ld.w	r8,r5[0x4]
800035ac:	09 99       	ld.ub	r9,r4[0x1]
800035ae:	f2 08 00 08 	add	r8,r9,r8
800035b2:	8b 18       	st.w	r5[0x4],r8
800035b4:	6c 18       	ld.w	r8,r6[0x4]
800035b6:	8d 08       	st.w	r6[0x0],r8
800035b8:	c5 fb       	rjmp	80003476 <fat_cluster_list+0xba>
800035ba:	30 0c       	mov	r12,0
800035bc:	2f ed       	sub	sp,-8
800035be:	d8 32       	popm	r0-r7,pc
800035c0:	00 00       	add	r0,r0
800035c2:	09 2c       	ld.uh	r12,r4++
800035c4:	00 00       	add	r0,r0
800035c6:	09 80       	ld.ub	r0,r4[0x0]
800035c8:	00 00       	add	r0,r0
800035ca:	09 88       	ld.ub	r8,r4[0x0]
800035cc:	00 00       	add	r0,r0
800035ce:	08 e4       	st.h	--r4,r4
800035d0:	00 00       	add	r0,r0
800035d2:	09 32       	ld.ub	r2,r4++
800035d4:	00 00       	add	r0,r0
800035d6:	06 bc       	st.h	r3++,r12
800035d8:	00 00       	add	r0,r0
800035da:	09 30       	ld.ub	r0,r4++

800035dc <fat_read_dir>:
800035dc:	d4 21       	pushm	r4-r7,lr
800035de:	49 48       	lddpc	r8,8000362c <fat_read_dir+0x50>
800035e0:	49 49       	lddpc	r9,80003630 <fat_read_dir+0x54>
800035e2:	90 97       	ld.uh	r7,r8[0x2]
800035e4:	13 8a       	ld.ub	r10,r9[0x0]
800035e6:	49 48       	lddpc	r8,80003634 <fat_read_dir+0x58>
800035e8:	a5 87       	lsr	r7,0x4
800035ea:	11 8b       	ld.ub	r11,r8[0x0]
800035ec:	f4 0b 18 00 	cp.b	r11,r10
800035f0:	c0 81       	brne	80003600 <fat_read_dir+0x24>
800035f2:	72 89       	ld.w	r9,r9[0x20]
800035f4:	70 3a       	ld.w	r10,r8[0xc]
800035f6:	12 3a       	cp.w	r10,r9
800035f8:	c0 41       	brne	80003600 <fat_read_dir+0x24>
800035fa:	70 48       	ld.w	r8,r8[0x10]
800035fc:	0e 38       	cp.w	r8,r7
800035fe:	c1 50       	breq	80003628 <fat_read_dir+0x4c>
80003600:	48 c5       	lddpc	r5,80003630 <fat_read_dir+0x54>
80003602:	6a 88       	ld.w	r8,r5[0x20]
80003604:	48 d6       	lddpc	r6,80003638 <fat_read_dir+0x5c>
80003606:	30 0b       	mov	r11,0
80003608:	8d 17       	st.w	r6[0x4],r7
8000360a:	8d 08       	st.w	r6[0x0],r8
8000360c:	30 2c       	mov	r12,2
8000360e:	cd 7e       	rcall	800033bc <fat_cluster_list>
80003610:	c0 d0       	breq	8000362a <fat_read_dir+0x4e>
80003612:	6c 09       	ld.w	r9,r6[0x0]
80003614:	48 a8       	lddpc	r8,8000363c <fat_read_dir+0x60>
80003616:	30 1c       	mov	r12,1
80003618:	91 09       	st.w	r8[0x0],r9
8000361a:	fe b0 fd bb 	rcall	80003190 <fat_cache_read_sector>
8000361e:	c0 60       	breq	8000362a <fat_read_dir+0x4e>
80003620:	48 58       	lddpc	r8,80003634 <fat_read_dir+0x58>
80003622:	6a 89       	ld.w	r9,r5[0x20]
80003624:	91 47       	st.w	r8[0x10],r7
80003626:	91 39       	st.w	r8[0xc],r9
80003628:	da 2a       	popm	r4-r7,pc,r12=1
8000362a:	d8 2a       	popm	r4-r7,pc,r12=0
8000362c:	00 00       	add	r0,r0
8000362e:	09 2c       	ld.uh	r12,r4++
80003630:	00 00       	add	r0,r0
80003632:	08 e4       	st.h	--r4,r4
80003634:	00 00       	add	r0,r0
80003636:	09 68       	ld.uh	r8,--r4
80003638:	00 00       	add	r0,r0
8000363a:	09 88       	ld.ub	r8,r4[0x0]
8000363c:	00 00       	add	r0,r0
8000363e:	06 a4       	st.w	r3++,r4

80003640 <fat_read_file>:
80003640:	d4 21       	pushm	r4-r7,lr
80003642:	4a 88       	lddpc	r8,800036e0 <fat_read_file+0xa0>
80003644:	18 97       	mov	r7,r12
80003646:	70 39       	ld.w	r9,r8[0xc]
80003648:	30 2a       	mov	r10,2
8000364a:	f2 06 16 09 	lsr	r6,r9,0x9
8000364e:	f4 0c 18 00 	cp.b	r12,r10
80003652:	c1 01       	brne	80003672 <fat_read_file+0x32>
80003654:	4a 49       	lddpc	r9,800036e4 <fat_read_file+0xa4>
80003656:	4a 5a       	lddpc	r10,800036e8 <fat_read_file+0xa8>
80003658:	13 8b       	ld.ub	r11,r9[0x0]
8000365a:	15 8a       	ld.ub	r10,r10[0x0]
8000365c:	f4 0b 18 00 	cp.b	r11,r10
80003660:	c1 41       	brne	80003688 <fat_read_file+0x48>
80003662:	70 18       	ld.w	r8,r8[0x4]
80003664:	72 3a       	ld.w	r10,r9[0xc]
80003666:	10 3a       	cp.w	r10,r8
80003668:	c1 01       	brne	80003688 <fat_read_file+0x48>
8000366a:	72 48       	ld.w	r8,r9[0x10]
8000366c:	0c 38       	cp.w	r8,r6
8000366e:	c0 d1       	brne	80003688 <fat_read_file+0x48>
80003670:	c3 58       	rjmp	800036da <fat_read_file+0x9a>
80003672:	30 3a       	mov	r10,3
80003674:	f4 0c 18 00 	cp.b	r12,r10
80003678:	c0 81       	brne	80003688 <fat_read_file+0x48>
8000367a:	70 18       	ld.w	r8,r8[0x4]
8000367c:	58 08       	cp.w	r8,0
8000367e:	c2 e0       	breq	800036da <fat_read_file+0x9a>
80003680:	f3 d9 c0 09 	bfextu	r9,r9,0x0,0x9
80003684:	c0 20       	breq	80003688 <fat_read_file+0x48>
80003686:	2f f6       	sub	r6,-1
80003688:	49 95       	lddpc	r5,800036ec <fat_read_file+0xac>
8000368a:	49 64       	lddpc	r4,800036e0 <fat_read_file+0xa0>
8000368c:	8b 16       	st.w	r5[0x4],r6
8000368e:	68 18       	ld.w	r8,r4[0x4]
80003690:	8b 08       	st.w	r5[0x0],r8
80003692:	30 28       	mov	r8,2
80003694:	f0 07 18 00 	cp.b	r7,r8
80003698:	c0 60       	breq	800036a4 <fat_read_file+0x64>
8000369a:	30 1b       	mov	r11,1
8000369c:	0e 9c       	mov	r12,r7
8000369e:	c8 fe       	rcall	800033bc <fat_cluster_list>
800036a0:	c1 20       	breq	800036c4 <fat_read_file+0x84>
800036a2:	c1 c8       	rjmp	800036da <fat_read_file+0x9a>
800036a4:	30 1b       	mov	r11,1
800036a6:	16 9c       	mov	r12,r11
800036a8:	c8 ae       	rcall	800033bc <fat_cluster_list>
800036aa:	c1 90       	breq	800036dc <fat_read_file+0x9c>
800036ac:	6a 09       	ld.w	r9,r5[0x0]
800036ae:	49 18       	lddpc	r8,800036f0 <fat_read_file+0xb0>
800036b0:	30 1c       	mov	r12,1
800036b2:	91 09       	st.w	r8[0x0],r9
800036b4:	fe b0 fd 6e 	rcall	80003190 <fat_cache_read_sector>
800036b8:	c1 20       	breq	800036dc <fat_read_file+0x9c>
800036ba:	48 b8       	lddpc	r8,800036e4 <fat_read_file+0xa4>
800036bc:	68 19       	ld.w	r9,r4[0x4]
800036be:	91 46       	st.w	r8[0x10],r6
800036c0:	91 39       	st.w	r8[0xc],r9
800036c2:	c0 c8       	rjmp	800036da <fat_read_file+0x9a>
800036c4:	30 38       	mov	r8,3
800036c6:	f0 07 18 00 	cp.b	r7,r8
800036ca:	c0 91       	brne	800036dc <fat_read_file+0x9c>
800036cc:	48 a8       	lddpc	r8,800036f4 <fat_read_file+0xb4>
800036ce:	11 89       	ld.ub	r9,r8[0x0]
800036d0:	31 a8       	mov	r8,26
800036d2:	f0 09 18 00 	cp.b	r9,r8
800036d6:	5f 0c       	sreq	r12
800036d8:	d8 22       	popm	r4-r7,pc
800036da:	da 2a       	popm	r4-r7,pc,r12=1
800036dc:	d8 2a       	popm	r4-r7,pc,r12=0
800036de:	d7 03       	nop
800036e0:	00 00       	add	r0,r0
800036e2:	06 a8       	st.w	r3++,r8
800036e4:	00 00       	add	r0,r0
800036e6:	09 68       	ld.uh	r8,--r4
800036e8:	00 00       	add	r0,r0
800036ea:	08 e4       	st.h	--r4,r4
800036ec:	00 00       	add	r0,r0
800036ee:	09 88       	ld.ub	r8,r4[0x0]
800036f0:	00 00       	add	r0,r0
800036f2:	06 a4       	st.w	r3++,r4
800036f4:	00 00       	add	r0,r0
800036f6:	09 30       	ld.ub	r0,r4++

800036f8 <fat_check_device>:
800036f8:	d4 31       	pushm	r0-r7,lr
800036fa:	4a 88       	lddpc	r8,80003798 <fat_check_device+0xa0>
800036fc:	11 89       	ld.ub	r9,r8[0x0]
800036fe:	30 08       	mov	r8,0
80003700:	f0 09 18 00 	cp.b	r9,r8
80003704:	c4 71       	brne	80003792 <fat_check_device+0x9a>
80003706:	4a 63       	lddpc	r3,8000379c <fat_check_device+0xa4>
80003708:	3f f6       	mov	r6,-1
8000370a:	07 88       	ld.ub	r8,r3[0x0]
8000370c:	ec 08 18 00 	cp.b	r8,r6
80003710:	c0 51       	brne	8000371a <fat_check_device+0x22>
80003712:	30 19       	mov	r9,1
80003714:	4a 38       	lddpc	r8,800037a0 <fat_check_device+0xa8>
80003716:	b0 89       	st.b	r8[0x0],r9
80003718:	c3 c8       	rjmp	80003790 <fat_check_device+0x98>
8000371a:	30 04       	mov	r4,0
8000371c:	4a 20       	lddpc	r0,800037a4 <fat_check_device+0xac>
8000371e:	08 97       	mov	r7,r4
80003720:	4a 21       	lddpc	r1,800037a8 <fat_check_device+0xb0>
80003722:	4a 32       	lddpc	r2,800037ac <fat_check_device+0xb4>
80003724:	4a 35       	lddpc	r5,800037b0 <fat_check_device+0xb8>
80003726:	07 8c       	ld.ub	r12,r3[0x0]
80003728:	e0 a0 14 92 	rcall	8000604c <mem_test_unit_ready>
8000372c:	4a 28       	lddpc	r8,800037b4 <fat_check_device+0xbc>
8000372e:	30 1a       	mov	r10,1
80003730:	49 c9       	lddpc	r9,800037a0 <fat_check_device+0xa8>
80003732:	58 0c       	cp.w	r12,0
80003734:	c2 f0       	breq	80003792 <fat_check_device+0x9a>
80003736:	a0 87       	st.b	r0[0x0],r7
80003738:	a2 87       	st.b	r1[0x0],r7
8000373a:	07 8b       	ld.ub	r11,r3[0x0]
8000373c:	05 8e       	ld.ub	lr,r2[0x0]
8000373e:	f6 0e 18 00 	cp.b	lr,r11
80003742:	c0 51       	brne	8000374c <fat_check_device+0x54>
80003744:	49 de       	lddpc	lr,800037b8 <fat_check_device+0xc0>
80003746:	bc 87       	st.b	lr[0x0],r7
80003748:	49 de       	lddpc	lr,800037bc <fat_check_device+0xc4>
8000374a:	bc 87       	st.b	lr[0x0],r7
8000374c:	0b 8e       	ld.ub	lr,r5[0x0]
8000374e:	f6 0e 18 00 	cp.b	lr,r11
80003752:	c0 61       	brne	8000375e <fat_check_device+0x66>
80003754:	3f fb       	mov	r11,-1
80003756:	aa 86       	st.b	r5[0x0],r6
80003758:	eb 67 00 08 	st.b	r5[8],r7
8000375c:	8b 3b       	st.w	r5[0xc],r11
8000375e:	49 9b       	lddpc	r11,800037c0 <fat_check_device+0xc8>
80003760:	b6 87       	st.b	r11[0x0],r7
80003762:	f1 66 00 15 	st.b	r8[21],r6
80003766:	b2 8a       	st.b	r9[0x0],r10
80003768:	b0 8a       	st.b	r8[0x0],r10
8000376a:	b0 a6       	st.b	r8[0x2],r6
8000376c:	b0 96       	st.b	r8[0x1],r6
8000376e:	f1 67 00 14 	st.b	r8[20],r7
80003772:	f1 66 00 16 	st.b	r8[22],r6
80003776:	58 3c       	cp.w	r12,3
80003778:	c0 81       	brne	80003788 <fat_check_device+0x90>
8000377a:	2f f4       	sub	r4,-1
8000377c:	36 48       	mov	r8,100
8000377e:	5c 54       	castu.b	r4
80003780:	f0 04 18 00 	cp.b	r4,r8
80003784:	cd 11       	brne	80003726 <fat_check_device+0x2e>
80003786:	c0 78       	rjmp	80003794 <fat_check_device+0x9c>
80003788:	58 2c       	cp.w	r12,2
8000378a:	c0 51       	brne	80003794 <fat_check_device+0x9c>
8000378c:	31 88       	mov	r8,24
8000378e:	b2 88       	st.b	r9[0x0],r8
80003790:	d8 3a       	popm	r0-r7,pc,r12=0
80003792:	da 3a       	popm	r0-r7,pc,r12=1
80003794:	d8 3a       	popm	r0-r7,pc,r12=0
80003796:	d7 03       	nop
80003798:	00 00       	add	r0,r0
8000379a:	06 ba       	st.h	r3++,r10
8000379c:	00 00       	add	r0,r0
8000379e:	08 e4       	st.h	--r4,r4
800037a0:	00 00       	add	r0,r0
800037a2:	09 30       	ld.ub	r0,r4++
800037a4:	00 00       	add	r0,r0
800037a6:	09 2c       	ld.uh	r12,r4++
800037a8:	00 00       	add	r0,r0
800037aa:	06 a8       	st.w	r3++,r8
800037ac:	00 00       	add	r0,r0
800037ae:	09 34       	ld.ub	r4,r4++
800037b0:	00 00       	add	r0,r0
800037b2:	09 68       	ld.uh	r8,--r4
800037b4:	00 00       	add	r0,r0
800037b6:	06 bc       	st.h	r3++,r12
800037b8:	00 00       	add	r0,r0
800037ba:	09 28       	ld.uh	r8,r4++
800037bc:	00 00       	add	r0,r0
800037be:	09 18       	ld.sh	r8,r4++
800037c0:	00 00       	add	r0,r0
800037c2:	09 32       	ld.ub	r2,r4++

800037c4 <fat_check_noopen>:
800037c4:	d4 01       	pushm	lr
800037c6:	c9 9f       	rcall	800036f8 <fat_check_device>
800037c8:	c1 10       	breq	800037ea <fat_check_noopen+0x26>
800037ca:	48 98       	lddpc	r8,800037ec <fat_check_noopen+0x28>
800037cc:	11 89       	ld.ub	r9,r8[0x0]
800037ce:	30 08       	mov	r8,0
800037d0:	f0 09 18 00 	cp.b	r9,r8
800037d4:	c0 b0       	breq	800037ea <fat_check_noopen+0x26>
800037d6:	48 79       	lddpc	r9,800037f0 <fat_check_noopen+0x2c>
800037d8:	13 89       	ld.ub	r9,r9[0x0]
800037da:	f0 09 18 00 	cp.b	r9,r8
800037de:	c0 60       	breq	800037ea <fat_check_noopen+0x26>
800037e0:	30 59       	mov	r9,5
800037e2:	48 58       	lddpc	r8,800037f4 <fat_check_noopen+0x30>
800037e4:	30 0c       	mov	r12,0
800037e6:	b0 89       	st.b	r8[0x0],r9
800037e8:	d8 02       	popm	pc
800037ea:	da 0a       	popm	pc,r12=1
800037ec:	00 00       	add	r0,r0
800037ee:	09 2c       	ld.uh	r12,r4++
800037f0:	00 00       	add	r0,r0
800037f2:	06 a8       	st.w	r3++,r8
800037f4:	00 00       	add	r0,r0
800037f6:	09 30       	ld.ub	r0,r4++

800037f8 <fat_check_mount>:
800037f8:	d4 01       	pushm	lr
800037fa:	c7 ff       	rcall	800036f8 <fat_check_device>
800037fc:	c0 e0       	breq	80003818 <fat_check_mount+0x20>
800037fe:	48 88       	lddpc	r8,8000381c <fat_check_mount+0x24>
80003800:	11 89       	ld.ub	r9,r8[0x0]
80003802:	30 08       	mov	r8,0
80003804:	f0 09 18 00 	cp.b	r9,r8
80003808:	c0 71       	brne	80003816 <fat_check_mount+0x1e>
8000380a:	c5 bc       	rcall	800038c0 <fat_mount>
8000380c:	c0 51       	brne	80003816 <fat_check_mount+0x1e>
8000380e:	30 e9       	mov	r9,14
80003810:	48 48       	lddpc	r8,80003820 <fat_check_mount+0x28>
80003812:	b0 89       	st.b	r8[0x0],r9
80003814:	d8 02       	popm	pc
80003816:	30 1c       	mov	r12,1
80003818:	d8 02       	popm	pc
8000381a:	d7 03       	nop
8000381c:	00 00       	add	r0,r0
8000381e:	09 2c       	ld.uh	r12,r4++
80003820:	00 00       	add	r0,r0
80003822:	09 30       	ld.ub	r0,r4++

80003824 <fat_check_mount_select>:
80003824:	d4 01       	pushm	lr
80003826:	ce 9f       	rcall	800037f8 <fat_check_mount>
80003828:	c0 c0       	breq	80003840 <fat_check_mount_select+0x1c>
8000382a:	48 78       	lddpc	r8,80003844 <fat_check_mount_select+0x20>
8000382c:	90 19       	ld.sh	r9,r8[0x2]
8000382e:	3f f8       	mov	r8,-1
80003830:	f0 09 19 00 	cp.h	r9,r8
80003834:	c0 20       	breq	80003838 <fat_check_mount_select+0x14>
80003836:	da 0a       	popm	pc,r12=1
80003838:	30 f9       	mov	r9,15
8000383a:	48 48       	lddpc	r8,80003848 <fat_check_mount_select+0x24>
8000383c:	30 0c       	mov	r12,0
8000383e:	b0 89       	st.b	r8[0x0],r9
80003840:	d8 02       	popm	pc
80003842:	d7 03       	nop
80003844:	00 00       	add	r0,r0
80003846:	09 2c       	ld.uh	r12,r4++
80003848:	00 00       	add	r0,r0
8000384a:	09 30       	ld.ub	r0,r4++

8000384c <fat_check_mount_select_open>:
8000384c:	d4 01       	pushm	lr
8000384e:	cd 5f       	rcall	800037f8 <fat_check_mount>
80003850:	c1 70       	breq	8000387e <fat_check_mount_select_open+0x32>
80003852:	48 c8       	lddpc	r8,80003880 <fat_check_mount_select_open+0x34>
80003854:	90 19       	ld.sh	r9,r8[0x2]
80003856:	3f f8       	mov	r8,-1
80003858:	f0 09 19 00 	cp.h	r9,r8
8000385c:	c0 61       	brne	80003868 <fat_check_mount_select_open+0x1c>
8000385e:	30 f9       	mov	r9,15
80003860:	48 98       	lddpc	r8,80003884 <fat_check_mount_select_open+0x38>
80003862:	30 0c       	mov	r12,0
80003864:	b0 89       	st.b	r8[0x0],r9
80003866:	d8 02       	popm	pc
80003868:	48 88       	lddpc	r8,80003888 <fat_check_mount_select_open+0x3c>
8000386a:	11 89       	ld.ub	r9,r8[0x0]
8000386c:	30 08       	mov	r8,0
8000386e:	f0 09 18 00 	cp.b	r9,r8
80003872:	c0 20       	breq	80003876 <fat_check_mount_select_open+0x2a>
80003874:	da 0a       	popm	pc,r12=1
80003876:	31 79       	mov	r9,23
80003878:	48 38       	lddpc	r8,80003884 <fat_check_mount_select_open+0x38>
8000387a:	30 0c       	mov	r12,0
8000387c:	b0 89       	st.b	r8[0x0],r9
8000387e:	d8 02       	popm	pc
80003880:	00 00       	add	r0,r0
80003882:	09 2c       	ld.uh	r12,r4++
80003884:	00 00       	add	r0,r0
80003886:	09 30       	ld.ub	r0,r4++
80003888:	00 00       	add	r0,r0
8000388a:	06 a8       	st.w	r3++,r8

8000388c <fat_check_mount_select_noopen>:
8000388c:	d4 01       	pushm	lr
8000388e:	cb 5f       	rcall	800037f8 <fat_check_mount>
80003890:	c0 d0       	breq	800038aa <fat_check_mount_select_noopen+0x1e>
80003892:	48 78       	lddpc	r8,800038ac <fat_check_mount_select_noopen+0x20>
80003894:	90 19       	ld.sh	r9,r8[0x2]
80003896:	3f f8       	mov	r8,-1
80003898:	f0 09 19 00 	cp.h	r9,r8
8000389c:	c0 61       	brne	800038a8 <fat_check_mount_select_noopen+0x1c>
8000389e:	30 f9       	mov	r9,15
800038a0:	48 48       	lddpc	r8,800038b0 <fat_check_mount_select_noopen+0x24>
800038a2:	30 0c       	mov	r12,0
800038a4:	b0 89       	st.b	r8[0x0],r9
800038a6:	d8 02       	popm	pc
800038a8:	c8 ef       	rcall	800037c4 <fat_check_noopen>
800038aa:	d8 02       	popm	pc
800038ac:	00 00       	add	r0,r0
800038ae:	09 2c       	ld.uh	r12,r4++
800038b0:	00 00       	add	r0,r0
800038b2:	09 30       	ld.ub	r0,r4++

800038b4 <fat_check_mount_noopen>:
800038b4:	d4 01       	pushm	lr
800038b6:	ca 1f       	rcall	800037f8 <fat_check_mount>
800038b8:	c0 20       	breq	800038bc <fat_check_mount_noopen+0x8>
800038ba:	c8 5f       	rcall	800037c4 <fat_check_noopen>
800038bc:	d8 02       	popm	pc
800038be:	d7 03       	nop

800038c0 <fat_mount>:
800038c0:	d4 31       	pushm	r0-r7,lr
800038c2:	20 5d       	sub	sp,20
800038c4:	4c 88       	lddpc	r8,800039e4 <fat_mount+0x124>
800038c6:	30 06       	mov	r6,0
800038c8:	91 86       	st.w	r8[0x20],r6
800038ca:	fe b0 fa 21 	rcall	80002d0c <fat_clear_entry_info_and_ptr>
800038ce:	4c 78       	lddpc	r8,800039e8 <fat_mount+0x128>
800038d0:	b0 86       	st.b	r8[0x0],r6
800038d2:	4c 78       	lddpc	r8,800039ec <fat_mount+0x12c>
800038d4:	91 06       	st.w	r8[0x0],r6
800038d6:	c1 1f       	rcall	800036f8 <fat_check_device>
800038d8:	e0 80 01 4c 	breq	80003b70 <fat_mount+0x2b0>
800038dc:	4c 57       	lddpc	r7,800039f0 <fat_mount+0x130>
800038de:	30 45       	mov	r5,4
800038e0:	ee cb fe 42 	sub	r11,r7,-446
800038e4:	50 1b       	stdsp	sp[0x4],r11
800038e6:	30 1c       	mov	r12,1
800038e8:	fe b0 fc 54 	rcall	80003190 <fat_cache_read_sector>
800038ec:	e0 80 01 42 	breq	80003b70 <fat_mount+0x2b0>
800038f0:	ef 39 01 fe 	ld.ub	r9,r7[510]
800038f4:	35 58       	mov	r8,85
800038f6:	f0 09 18 00 	cp.b	r9,r8
800038fa:	c0 90       	breq	8000390c <fat_mount+0x4c>
800038fc:	ef 39 01 ff 	ld.ub	r9,r7[511]
80003900:	3a a8       	mov	r8,-86
80003902:	f0 09 18 00 	cp.b	r9,r8
80003906:	c0 30       	breq	8000390c <fat_mount+0x4c>
80003908:	30 29       	mov	r9,2
8000390a:	c6 98       	rjmp	800039dc <fat_mount+0x11c>
8000390c:	4b 88       	lddpc	r8,800039ec <fat_mount+0x12c>
8000390e:	70 0b       	ld.w	r11,r8[0x0]
80003910:	58 0b       	cp.w	r11,0
80003912:	c5 21       	brne	800039b6 <fat_mount+0xf6>
80003914:	40 1a       	lddsp	r10,sp[0x4]
80003916:	16 99       	mov	r9,r11
80003918:	30 12       	mov	r2,1
8000391a:	30 63       	mov	r3,6
8000391c:	30 e4       	mov	r4,14
8000391e:	30 be       	mov	lr,11
80003920:	30 cc       	mov	r12,12
80003922:	50 0b       	stdsp	sp[0x0],r11
80003924:	15 88       	ld.ub	r8,r10[0x0]
80003926:	38 00       	mov	r0,-128
80003928:	f2 c1 ff ff 	sub	r1,r9,-1
8000392c:	e0 08 18 00 	cp.b	r8,r0
80003930:	5f 00       	sreq	r0
80003932:	ec 08 18 00 	cp.b	r8,r6
80003936:	5f 08       	sreq	r8
80003938:	00 48       	or	r8,r0
8000393a:	ec 08 18 00 	cp.b	r8,r6
8000393e:	c1 90       	breq	80003970 <fat_mount+0xb0>
80003940:	15 c8       	ld.ub	r8,r10[0x4]
80003942:	ea 08 18 00 	cp.b	r8,r5
80003946:	5f 0b       	sreq	r11
80003948:	e4 08 18 00 	cp.b	r8,r2
8000394c:	5f 00       	sreq	r0
8000394e:	f7 e0 10 00 	or	r0,r11,r0
80003952:	ec 00 18 00 	cp.b	r0,r6
80003956:	c1 51       	brne	80003980 <fat_mount+0xc0>
80003958:	e6 08 18 00 	cp.b	r8,r3
8000395c:	c1 20       	breq	80003980 <fat_mount+0xc0>
8000395e:	e8 08 18 00 	cp.b	r8,r4
80003962:	c0 f0       	breq	80003980 <fat_mount+0xc0>
80003964:	fc 08 18 00 	cp.b	r8,lr
80003968:	c0 c0       	breq	80003980 <fat_mount+0xc0>
8000396a:	f8 08 18 00 	cp.b	r8,r12
8000396e:	c0 90       	breq	80003980 <fat_mount+0xc0>
80003970:	f3 d1 c0 08 	bfextu	r9,r1,0x0,0x8
80003974:	2f 0a       	sub	r10,-16
80003976:	ea 09 18 00 	cp.b	r9,r5
8000397a:	cd 51       	brne	80003924 <fat_mount+0x64>
8000397c:	40 0b       	lddsp	r11,sp[0x0]
8000397e:	c1 c8       	rjmp	800039b6 <fat_mount+0xf6>
80003980:	a5 69       	lsl	r9,0x4
80003982:	f2 c9 fe 42 	sub	r9,r9,-446
80003986:	5c 79       	castu.h	r9
80003988:	ee 09 00 09 	add	r9,r7,r9
8000398c:	f3 38 00 0b 	ld.ub	r8,r9[11]
80003990:	49 74       	lddpc	r4,800039ec <fat_mount+0x12c>
80003992:	a8 88       	st.b	r4[0x0],r8
80003994:	f3 38 00 08 	ld.ub	r8,r9[8]
80003998:	a8 b8       	st.b	r4[0x3],r8
8000399a:	f3 38 00 09 	ld.ub	r8,r9[9]
8000399e:	a8 a8       	st.b	r4[0x2],r8
800039a0:	f3 38 00 0a 	ld.ub	r8,r9[10]
800039a4:	a8 98       	st.b	r4[0x1],r8
800039a6:	49 08       	lddpc	r8,800039e4 <fat_mount+0x124>
800039a8:	68 03       	ld.w	r3,r4[0x0]
800039aa:	11 8c       	ld.ub	r12,r8[0x0]
800039ac:	e0 a0 13 66 	rcall	80006078 <mem_sector_size>
800039b0:	a7 3c       	mul	r12,r3
800039b2:	89 0c       	st.w	r4[0x0],r12
800039b4:	c9 9b       	rjmp	800038e6 <fat_mount+0x26>
800039b6:	48 f8       	lddpc	r8,800039f0 <fat_mount+0x130>
800039b8:	3e b9       	mov	r9,-21
800039ba:	11 8a       	ld.ub	r10,r8[0x0]
800039bc:	f2 0a 18 00 	cp.b	r10,r9
800039c0:	c0 d1       	brne	800039da <fat_mount+0x11a>
800039c2:	11 aa       	ld.ub	r10,r8[0x2]
800039c4:	39 09       	mov	r9,-112
800039c6:	f2 0a 18 00 	cp.b	r10,r9
800039ca:	c0 81       	brne	800039da <fat_mount+0x11a>
800039cc:	f1 39 00 15 	ld.ub	r9,r8[21]
800039d0:	e2 19 00 f0 	andl	r9,0xf0,COH
800039d4:	e0 49 00 f0 	cp.w	r9,240
800039d8:	c1 00       	breq	800039f8 <fat_mount+0x138>
800039da:	30 39       	mov	r9,3
800039dc:	48 68       	lddpc	r8,800039f4 <fat_mount+0x134>
800039de:	b0 89       	st.b	r8[0x0],r9
800039e0:	cc 88       	rjmp	80003b70 <fat_mount+0x2b0>
800039e2:	d7 03       	nop
800039e4:	00 00       	add	r0,r0
800039e6:	08 e4       	st.h	--r4,r4
800039e8:	00 00       	add	r0,r0
800039ea:	09 2c       	ld.uh	r12,r4++
800039ec:	00 00       	add	r0,r0
800039ee:	06 a4       	st.w	r3++,r4
800039f0:	00 00       	add	r0,r0
800039f2:	06 e4       	st.h	--r3,r4
800039f4:	00 00       	add	r0,r0
800039f6:	09 30       	ld.ub	r0,r4++
800039f8:	30 09       	mov	r9,0
800039fa:	30 4a       	mov	r10,4
800039fc:	50 39       	stdsp	sp[0xc],r9
800039fe:	4d 09       	lddpc	r9,80003b3c <fat_mount+0x27c>
80003a00:	4d 0c       	lddpc	r12,80003b40 <fat_mount+0x280>
80003a02:	b2 8a       	st.b	r9[0x0],r10
80003a04:	f1 39 00 0c 	ld.ub	r9,r8[12]
80003a08:	f1 3a 00 0d 	ld.ub	r10,r8[13]
80003a0c:	a1 99       	lsr	r9,0x1
80003a0e:	b3 3a       	mul	r10,r9
80003a10:	5c 5a       	castu.b	r10
80003a12:	b8 9a       	st.b	r12[0x1],r10
80003a14:	fa c7 ff f1 	sub	r7,sp,-15
80003a18:	f1 3c 00 16 	ld.ub	r12,r8[22]
80003a1c:	ae 8c       	st.b	r7[0x0],r12
80003a1e:	fa ce ff f2 	sub	lr,sp,-14
80003a22:	f1 3c 00 17 	ld.ub	r12,r8[23]
80003a26:	bc 8c       	st.b	lr[0x0],r12
80003a28:	fa cc ff f4 	sub	r12,sp,-12
80003a2c:	40 36       	lddsp	r6,sp[0xc]
80003a2e:	58 06       	cp.w	r6,0
80003a30:	c0 d1       	brne	80003a4a <fat_mount+0x18a>
80003a32:	f1 36 00 27 	ld.ub	r6,r8[39]
80003a36:	b8 86       	st.b	r12[0x0],r6
80003a38:	f1 36 00 24 	ld.ub	r6,r8[36]
80003a3c:	ae 86       	st.b	r7[0x0],r6
80003a3e:	f1 36 00 25 	ld.ub	r6,r8[37]
80003a42:	bc 86       	st.b	lr[0x0],r6
80003a44:	f1 38 00 26 	ld.ub	r8,r8[38]
80003a48:	b8 98       	st.b	r12[0x1],r8
80003a4a:	4b e8       	lddpc	r8,80003b40 <fat_mount+0x280>
80003a4c:	40 35       	lddsp	r5,sp[0xc]
80003a4e:	f2 05 02 45 	mul	r5,r9,r5
80003a52:	91 15       	st.w	r8[0x4],r5
80003a54:	4b c8       	lddpc	r8,80003b44 <fat_mount+0x284>
80003a56:	f1 36 00 13 	ld.ub	r6,r8[19]
80003a5a:	58 06       	cp.w	r6,0
80003a5c:	c1 31       	brne	80003a82 <fat_mount+0x1c2>
80003a5e:	f1 33 00 14 	ld.ub	r3,r8[20]
80003a62:	ec 03 18 00 	cp.b	r3,r6
80003a66:	c0 e1       	brne	80003a82 <fat_mount+0x1c2>
80003a68:	f1 36 00 23 	ld.ub	r6,r8[35]
80003a6c:	b8 86       	st.b	r12[0x0],r6
80003a6e:	f1 36 00 20 	ld.ub	r6,r8[32]
80003a72:	ae 86       	st.b	r7[0x0],r6
80003a74:	f1 37 00 21 	ld.ub	r7,r8[33]
80003a78:	bc 87       	st.b	lr[0x0],r7
80003a7a:	f1 38 00 22 	ld.ub	r8,r8[34]
80003a7e:	b8 98       	st.b	r12[0x1],r8
80003a80:	c0 98       	rjmp	80003a92 <fat_mount+0x1d2>
80003a82:	ae 86       	st.b	r7[0x0],r6
80003a84:	30 08       	mov	r8,0
80003a86:	b8 88       	st.b	r12[0x0],r8
80003a88:	b8 98       	st.b	r12[0x1],r8
80003a8a:	4a f8       	lddpc	r8,80003b44 <fat_mount+0x284>
80003a8c:	f1 38 00 14 	ld.ub	r8,r8[20]
80003a90:	bc 88       	st.b	lr[0x0],r8
80003a92:	4a c8       	lddpc	r8,80003b40 <fat_mount+0x280>
80003a94:	4a cc       	lddpc	r12,80003b44 <fat_mount+0x284>
80003a96:	a1 75       	lsl	r5,0x1
80003a98:	f9 3e 00 11 	ld.ub	lr,r12[17]
80003a9c:	f1 55 00 18 	st.h	r8[24],r5
80003aa0:	40 34       	lddsp	r4,sp[0xc]
80003aa2:	fa c7 ff ec 	sub	r7,sp,-20
80003aa6:	0e fe       	st.b	--r7,lr
80003aa8:	f9 3e 00 12 	ld.ub	lr,r12[18]
80003aac:	fa c6 ff ee 	sub	r6,sp,-18
80003ab0:	ac 8e       	st.b	r6[0x0],lr
80003ab2:	fb 1e 00 12 	ld.uh	lr,sp[18]
80003ab6:	f2 03 15 04 	lsl	r3,r9,0x4
80003aba:	1c 03       	add	r3,lr
80003abc:	f2 0e 15 09 	lsl	lr,r9,0x9
80003ac0:	a5 73       	lsl	r3,0x5
80003ac2:	20 13       	sub	r3,1
80003ac4:	e6 0e 0c 02 	divs	r2,r3,lr
80003ac8:	f2 02 02 4e 	mul	lr,r9,r2
80003acc:	f1 5e 00 1a 	st.h	r8[26],lr
80003ad0:	f9 33 00 0e 	ld.ub	r3,r12[14]
80003ad4:	ae 83       	st.b	r7[0x0],r3
80003ad6:	5c 7e       	castu.h	lr
80003ad8:	0a 0e       	add	lr,r5
80003ada:	91 5e       	st.w	r8[0x14],lr
80003adc:	f9 35 00 30 	ld.ub	r5,r12[48]
80003ae0:	f9 3c 00 0f 	ld.ub	r12,r12[15]
80003ae4:	ac 8c       	st.b	r6[0x0],r12
80003ae6:	fb 07 00 12 	ld.sh	r7,sp[18]
80003aea:	f2 07 02 4c 	mul	r12,r9,r7
80003aee:	5c 77       	castu.h	r7
80003af0:	5c 7c       	castu.h	r12
80003af2:	0a 17       	sub	r7,r5
80003af4:	18 0b       	add	r11,r12
80003af6:	b3 37       	mul	r7,r9
80003af8:	91 4b       	st.w	r8[0x10],r11
80003afa:	b0 47       	st.h	r8[0x8],r7
80003afc:	58 0a       	cp.w	r10,0
80003afe:	c3 90       	breq	80003b70 <fat_mount+0x2b0>
80003b00:	a9 39       	mul	r9,r4
80003b02:	30 18       	mov	r8,1
80003b04:	18 19       	sub	r9,r12
80003b06:	1c 19       	sub	r9,lr
80003b08:	c0 38       	rjmp	80003b0e <fat_mount+0x24e>
80003b0a:	a1 99       	lsr	r9,0x1
80003b0c:	a1 9a       	lsr	r10,0x1
80003b0e:	f0 0a 18 00 	cp.b	r10,r8
80003b12:	cf c1       	brne	80003b0a <fat_mount+0x24a>
80003b14:	48 b8       	lddpc	r8,80003b40 <fat_mount+0x280>
80003b16:	f2 cb ff fe 	sub	r11,r9,-2
80003b1a:	91 3b       	st.w	r8[0xc],r11
80003b1c:	e0 49 0f f4 	cp.w	r9,4084
80003b20:	e0 8b 00 05 	brhi	80003b2a <fat_mount+0x26a>
80003b24:	48 98       	lddpc	r8,80003b48 <fat_mount+0x288>
80003b26:	b0 8a       	st.b	r8[0x0],r10
80003b28:	c2 28       	rjmp	80003b6c <fat_mount+0x2ac>
80003b2a:	48 8a       	lddpc	r10,80003b48 <fat_mount+0x288>
80003b2c:	e0 49 ff f4 	cp.w	r9,65524
80003b30:	e0 8b 00 0e 	brhi	80003b4c <fat_mount+0x28c>
80003b34:	30 28       	mov	r8,2
80003b36:	b4 88       	st.b	r10[0x0],r8
80003b38:	c1 a8       	rjmp	80003b6c <fat_mount+0x2ac>
80003b3a:	d7 03       	nop
80003b3c:	00 00       	add	r0,r0
80003b3e:	09 30       	ld.ub	r0,r4++
80003b40:	00 00       	add	r0,r0
80003b42:	08 e4       	st.h	--r4,r4
80003b44:	00 00       	add	r0,r0
80003b46:	06 e4       	st.h	--r3,r4
80003b48:	00 00       	add	r0,r0
80003b4a:	09 2c       	ld.uh	r12,r4++
80003b4c:	2e 88       	sub	r8,-24
80003b4e:	48 b9       	lddpc	r9,80003b78 <fat_mount+0x2b8>
80003b50:	f3 3b 00 2f 	ld.ub	r11,r9[47]
80003b54:	b0 8b       	st.b	r8[0x0],r11
80003b56:	30 3b       	mov	r11,3
80003b58:	b4 8b       	st.b	r10[0x0],r11
80003b5a:	f3 3a 00 2c 	ld.ub	r10,r9[44]
80003b5e:	b0 ba       	st.b	r8[0x3],r10
80003b60:	f3 3a 00 2d 	ld.ub	r10,r9[45]
80003b64:	b0 aa       	st.b	r8[0x2],r10
80003b66:	f3 39 00 2e 	ld.ub	r9,r9[46]
80003b6a:	b0 99       	st.b	r8[0x1],r9
80003b6c:	30 1c       	mov	r12,1
80003b6e:	c0 28       	rjmp	80003b72 <fat_mount+0x2b2>
80003b70:	30 0c       	mov	r12,0
80003b72:	2f bd       	sub	sp,-20
80003b74:	d8 32       	popm	r0-r7,pc
80003b76:	d7 03       	nop
80003b78:	00 00       	add	r0,r0
80003b7a:	06 e4       	st.h	--r3,r4

80003b7c <file_close>:
80003b7c:	d4 01       	pushm	lr
80003b7e:	c6 7e       	rcall	8000384c <fat_check_mount_select_open>
80003b80:	c0 40       	breq	80003b88 <file_close+0xc>
80003b82:	30 09       	mov	r9,0
80003b84:	48 28       	lddpc	r8,80003b8c <file_close+0x10>
80003b86:	b0 89       	st.b	r8[0x0],r9
80003b88:	d8 02       	popm	pc
80003b8a:	d7 03       	nop
80003b8c:	00 00       	add	r0,r0
80003b8e:	06 a8       	st.w	r3++,r8

80003b90 <file_eof>:
80003b90:	d4 01       	pushm	lr
80003b92:	c5 de       	rcall	8000384c <fat_check_mount_select_open>
80003b94:	c0 41       	brne	80003b9c <file_eof+0xc>
80003b96:	e0 6c 00 ff 	mov	r12,255
80003b9a:	d8 02       	popm	pc
80003b9c:	48 38       	lddpc	r8,80003ba8 <file_eof+0x18>
80003b9e:	70 39       	ld.w	r9,r8[0xc]
80003ba0:	70 28       	ld.w	r8,r8[0x8]
80003ba2:	12 38       	cp.w	r8,r9
80003ba4:	5f 8c       	srls	r12
80003ba6:	d8 02       	popm	pc
80003ba8:	00 00       	add	r0,r0
80003baa:	06 a8       	st.w	r3++,r8

80003bac <file_bof>:
80003bac:	d4 01       	pushm	lr
80003bae:	c4 fe       	rcall	8000384c <fat_check_mount_select_open>
80003bb0:	c0 41       	brne	80003bb8 <file_bof+0xc>
80003bb2:	e0 6c 00 ff 	mov	r12,255
80003bb6:	d8 02       	popm	pc
80003bb8:	48 38       	lddpc	r8,80003bc4 <file_bof+0x18>
80003bba:	70 38       	ld.w	r8,r8[0xc]
80003bbc:	58 08       	cp.w	r8,0
80003bbe:	5f 0c       	sreq	r12
80003bc0:	d8 02       	popm	pc
80003bc2:	d7 03       	nop
80003bc4:	00 00       	add	r0,r0
80003bc6:	06 a8       	st.w	r3++,r8

80003bc8 <file_getc>:
80003bc8:	d4 21       	pushm	r4-r7,lr
80003bca:	49 47       	lddpc	r7,80003c18 <file_getc+0x50>
80003bcc:	0f 88       	ld.ub	r8,r7[0x0]
80003bce:	ed b8 00 00 	bld	r8,0x0
80003bd2:	c0 30       	breq	80003bd8 <file_getc+0x10>
80003bd4:	31 e9       	mov	r9,30
80003bd6:	c0 78       	rjmp	80003be4 <file_getc+0x1c>
80003bd8:	6e 29       	ld.w	r9,r7[0x8]
80003bda:	6e 38       	ld.w	r8,r7[0xc]
80003bdc:	10 39       	cp.w	r9,r8
80003bde:	e0 8b 00 05 	brhi	80003be8 <file_getc+0x20>
80003be2:	32 09       	mov	r9,32
80003be4:	48 e8       	lddpc	r8,80003c1c <file_getc+0x54>
80003be6:	c0 c8       	rjmp	80003bfe <file_getc+0x36>
80003be8:	30 2c       	mov	r12,2
80003bea:	fe b0 fd 2b 	rcall	80003640 <fat_read_file>
80003bee:	c0 a1       	brne	80003c02 <file_getc+0x3a>
80003bf0:	48 b8       	lddpc	r8,80003c1c <file_getc+0x54>
80003bf2:	31 a9       	mov	r9,26
80003bf4:	11 8a       	ld.ub	r10,r8[0x0]
80003bf6:	f2 0a 18 00 	cp.b	r10,r9
80003bfa:	c0 31       	brne	80003c00 <file_getc+0x38>
80003bfc:	32 09       	mov	r9,32
80003bfe:	b0 89       	st.b	r8[0x0],r9
80003c00:	dc 2a       	popm	r4-r7,pc,r12=-1
80003c02:	6e 38       	ld.w	r8,r7[0xc]
80003c04:	f0 c9 ff ff 	sub	r9,r8,-1
80003c08:	f1 d8 c0 09 	bfextu	r8,r8,0x0,0x9
80003c0c:	8f 39       	st.w	r7[0xc],r9
80003c0e:	48 59       	lddpc	r9,80003c20 <file_getc+0x58>
80003c10:	f2 08 07 0c 	ld.ub	r12,r9[r8]
80003c14:	d8 22       	popm	r4-r7,pc
80003c16:	d7 03       	nop
80003c18:	00 00       	add	r0,r0
80003c1a:	06 a8       	st.w	r3++,r8
80003c1c:	00 00       	add	r0,r0
80003c1e:	09 30       	ld.ub	r0,r4++
80003c20:	00 00       	add	r0,r0
80003c22:	06 e4       	st.h	--r3,r4

80003c24 <file_read_buf>:
80003c24:	d4 31       	pushm	r0-r7,lr
80003c26:	20 1d       	sub	sp,4
80003c28:	18 95       	mov	r5,r12
80003c2a:	16 96       	mov	r6,r11
80003c2c:	c1 0e       	rcall	8000384c <fat_check_mount_select_open>
80003c2e:	c0 31       	brne	80003c34 <file_read_buf+0x10>
80003c30:	18 94       	mov	r4,r12
80003c32:	c8 e8       	rjmp	80003d4e <file_read_buf+0x12a>
80003c34:	4c 82       	lddpc	r2,80003d54 <file_read_buf+0x130>
80003c36:	05 84       	ld.ub	r4,r2[0x0]
80003c38:	e9 d4 c0 01 	bfextu	r4,r4,0x0,0x1
80003c3c:	c0 70       	breq	80003c4a <file_read_buf+0x26>
80003c3e:	30 04       	mov	r4,0
80003c40:	4c 60       	lddpc	r0,80003d58 <file_read_buf+0x134>
80003c42:	e0 61 01 ff 	mov	r1,511
80003c46:	4c 67       	lddpc	r7,80003d5c <file_read_buf+0x138>
80003c48:	c8 18       	rjmp	80003d4a <file_read_buf+0x126>
80003c4a:	31 e9       	mov	r9,30
80003c4c:	c0 48       	rjmp	80003c54 <file_read_buf+0x30>
80003c4e:	ca 1f       	rcall	80003b90 <file_eof>
80003c50:	c0 50       	breq	80003c5a <file_read_buf+0x36>
80003c52:	32 09       	mov	r9,32
80003c54:	4c 38       	lddpc	r8,80003d60 <file_read_buf+0x13c>
80003c56:	b0 89       	st.b	r8[0x0],r9
80003c58:	c7 b8       	rjmp	80003d4e <file_read_buf+0x12a>
80003c5a:	64 38       	ld.w	r8,r2[0xc]
80003c5c:	64 23       	ld.w	r3,r2[0x8]
80003c5e:	f7 d8 c0 09 	bfextu	r11,r8,0x0,0x9
80003c62:	10 13       	sub	r3,r8
80003c64:	f8 0b 19 00 	cp.h	r11,r12
80003c68:	5f 0a       	sreq	r10
80003c6a:	e0 43 01 ff 	cp.w	r3,511
80003c6e:	5f b8       	srhi	r8
80003c70:	f5 e8 00 08 	and	r8,r10,r8
80003c74:	f8 08 18 00 	cp.b	r8,r12
80003c78:	c3 90       	breq	80003cea <file_read_buf+0xc6>
80003c7a:	e2 06 19 00 	cp.h	r6,r1
80003c7e:	e0 88 00 36 	brls	80003cea <file_read_buf+0xc6>
80003c82:	f1 d5 c0 02 	bfextu	r8,r5,0x0,0x2
80003c86:	c3 21       	brne	80003cea <file_read_buf+0xc6>
80003c88:	f1 d6 c0 10 	bfextu	r8,r6,0x0,0x10
80003c8c:	06 38       	cp.w	r8,r3
80003c8e:	e0 8b 00 05 	brhi	80003c98 <file_read_buf+0x74>
80003c92:	e7 d6 b0 10 	bfexts	r3,r6,0x0,0x10
80003c96:	c0 28       	rjmp	80003c9a <file_read_buf+0x76>
80003c98:	5c 83       	casts.h	r3
80003c9a:	30 1c       	mov	r12,1
80003c9c:	fe b0 fc d2 	rcall	80003640 <fat_read_file>
80003ca0:	c2 b0       	breq	80003cf6 <file_read_buf+0xd2>
80003ca2:	e7 d3 c1 27 	bfextu	r3,r3,0x9,0x7
80003ca6:	6e 19       	ld.w	r9,r7[0x4]
80003ca8:	f1 d3 c0 10 	bfextu	r8,r3,0x0,0x10
80003cac:	12 38       	cp.w	r8,r9
80003cae:	e0 88 00 05 	brls	80003cb8 <file_read_buf+0x94>
80003cb2:	e7 d9 b0 10 	bfexts	r3,r9,0x0,0x10
80003cb6:	c1 48       	rjmp	80003cde <file_read_buf+0xba>
80003cb8:	8f 18       	st.w	r7[0x4],r8
80003cba:	c1 28       	rjmp	80003cde <file_read_buf+0xba>
80003cbc:	4a a8       	lddpc	r8,80003d64 <file_read_buf+0x140>
80003cbe:	0a 9a       	mov	r10,r5
80003cc0:	6e 0b       	ld.w	r11,r7[0x0]
80003cc2:	ea c5 fe 00 	sub	r5,r5,-512
80003cc6:	11 8c       	ld.ub	r12,r8[0x0]
80003cc8:	e0 a0 12 20 	rcall	80006108 <memory_2_ram>
80003ccc:	c0 30       	breq	80003cd2 <file_read_buf+0xae>
80003cce:	30 19       	mov	r9,1
80003cd0:	cc 2b       	rjmp	80003c54 <file_read_buf+0x30>
80003cd2:	6e 18       	ld.w	r8,r7[0x4]
80003cd4:	20 18       	sub	r8,1
80003cd6:	8f 18       	st.w	r7[0x4],r8
80003cd8:	6e 08       	ld.w	r8,r7[0x0]
80003cda:	2f f8       	sub	r8,-1
80003cdc:	8f 08       	st.w	r7[0x0],r8
80003cde:	6e 18       	ld.w	r8,r7[0x4]
80003ce0:	58 08       	cp.w	r8,0
80003ce2:	ce d1       	brne	80003cbc <file_read_buf+0x98>
80003ce4:	a9 73       	lsl	r3,0x9
80003ce6:	5c 83       	casts.h	r3
80003ce8:	c2 88       	rjmp	80003d38 <file_read_buf+0x114>
80003cea:	50 0b       	stdsp	sp[0x0],r11
80003cec:	30 2c       	mov	r12,2
80003cee:	fe b0 fc a9 	rcall	80003640 <fat_read_file>
80003cf2:	40 0b       	lddsp	r11,sp[0x0]
80003cf4:	c0 91       	brne	80003d06 <file_read_buf+0xe2>
80003cf6:	49 b8       	lddpc	r8,80003d60 <file_read_buf+0x13c>
80003cf8:	31 a9       	mov	r9,26
80003cfa:	11 8a       	ld.ub	r10,r8[0x0]
80003cfc:	f2 0a 18 00 	cp.b	r10,r9
80003d00:	c2 71       	brne	80003d4e <file_read_buf+0x12a>
80003d02:	32 09       	mov	r9,32
80003d04:	ca 9b       	rjmp	80003c56 <file_read_buf+0x32>
80003d06:	e0 68 02 00 	mov	r8,512
80003d0a:	16 18       	sub	r8,r11
80003d0c:	5c 88       	casts.h	r8
80003d0e:	f3 d8 c0 10 	bfextu	r9,r8,0x0,0x10
80003d12:	06 39       	cp.w	r9,r3
80003d14:	e0 88 00 04 	brls	80003d1c <file_read_buf+0xf8>
80003d18:	f1 d3 b0 10 	bfexts	r8,r3,0x0,0x10
80003d1c:	f0 06 19 00 	cp.h	r6,r8
80003d20:	f0 03 17 20 	movhs	r3,r8
80003d24:	ec 03 17 30 	movlo	r3,r6
80003d28:	0a 9c       	mov	r12,r5
80003d2a:	e0 0b 00 0b 	add	r11,r0,r11
80003d2e:	f5 d3 c0 10 	bfextu	r10,r3,0x0,0x10
80003d32:	14 05       	add	r5,r10
80003d34:	e0 a0 16 42 	rcall	800069b8 <memcpy>
80003d38:	06 16       	sub	r6,r3
80003d3a:	e6 04 00 04 	add	r4,r3,r4
80003d3e:	64 38       	ld.w	r8,r2[0xc]
80003d40:	5c 73       	castu.h	r3
80003d42:	5c 86       	casts.h	r6
80003d44:	10 03       	add	r3,r8
80003d46:	5c 84       	casts.h	r4
80003d48:	85 33       	st.w	r2[0xc],r3
80003d4a:	58 06       	cp.w	r6,0
80003d4c:	c8 11       	brne	80003c4e <file_read_buf+0x2a>
80003d4e:	08 9c       	mov	r12,r4
80003d50:	2f fd       	sub	sp,-4
80003d52:	d8 32       	popm	r0-r7,pc
80003d54:	00 00       	add	r0,r0
80003d56:	06 a8       	st.w	r3++,r8
80003d58:	00 00       	add	r0,r0
80003d5a:	06 e4       	st.h	--r3,r4
80003d5c:	00 00       	add	r0,r0
80003d5e:	09 88       	ld.ub	r8,r4[0x0]
80003d60:	00 00       	add	r0,r0
80003d62:	09 30       	ld.ub	r0,r4++
80003d64:	00 00       	add	r0,r0
80003d66:	08 e4       	st.h	--r4,r4

80003d68 <file_open>:
80003d68:	d4 21       	pushm	r4-r7,lr
80003d6a:	18 97       	mov	r7,r12
80003d6c:	fe b0 fd 90 	rcall	8000388c <fat_check_mount_select_noopen>
80003d70:	c2 70       	breq	80003dbe <file_open+0x56>
80003d72:	fe b0 f6 21 	rcall	800029b4 <fat_check_is_file>
80003d76:	c2 40       	breq	80003dbe <file_open+0x56>
80003d78:	0e 96       	mov	r6,r7
80003d7a:	e2 16 00 02 	andl	r6,0x2,COH
80003d7e:	c0 a0       	breq	80003d92 <file_open+0x2a>
80003d80:	30 1c       	mov	r12,1
80003d82:	fe b0 f9 3f 	rcall	80003000 <fat_check_nav_access_file>
80003d86:	c1 c0       	breq	80003dbe <file_open+0x56>
80003d88:	31 f9       	mov	r9,31
80003d8a:	48 e8       	lddpc	r8,80003dc0 <file_open+0x58>
80003d8c:	30 0c       	mov	r12,0
80003d8e:	b0 89       	st.b	r8[0x0],r9
80003d90:	d8 22       	popm	r4-r7,pc
80003d92:	0c 9c       	mov	r12,r6
80003d94:	fe b0 f9 36 	rcall	80003000 <fat_check_nav_access_file>
80003d98:	c1 30       	breq	80003dbe <file_open+0x56>
80003d9a:	ed b7 00 02 	bld	r7,0x2
80003d9e:	c0 31       	brne	80003da4 <file_open+0x3c>
80003da0:	48 98       	lddpc	r8,80003dc4 <file_open+0x5c>
80003da2:	91 26       	st.w	r8[0x8],r6
80003da4:	0e 99       	mov	r9,r7
80003da6:	48 88       	lddpc	r8,80003dc4 <file_open+0x5c>
80003da8:	e2 19 00 08 	andl	r9,0x8,COH
80003dac:	c0 30       	breq	80003db2 <file_open+0x4a>
80003dae:	30 09       	mov	r9,0
80003db0:	c0 28       	rjmp	80003db4 <file_open+0x4c>
80003db2:	70 29       	ld.w	r9,r8[0x8]
80003db4:	91 39       	st.w	r8[0xc],r9
80003db6:	30 1c       	mov	r12,1
80003db8:	48 38       	lddpc	r8,80003dc4 <file_open+0x5c>
80003dba:	b0 87       	st.b	r8[0x0],r7
80003dbc:	d8 22       	popm	r4-r7,pc
80003dbe:	d8 2a       	popm	r4-r7,pc,r12=0
80003dc0:	00 00       	add	r0,r0
80003dc2:	09 30       	ld.ub	r0,r4++
80003dc4:	00 00       	add	r0,r0
80003dc6:	06 a8       	st.w	r3++,r8

80003dc8 <nav_file_name>:
80003dc8:	d4 31       	pushm	r0-r7,lr
80003dca:	20 1d       	sub	sp,4
80003dcc:	18 97       	mov	r7,r12
80003dce:	16 96       	mov	r6,r11
80003dd0:	14 91       	mov	r1,r10
80003dd2:	50 09       	stdsp	sp[0x0],r9
80003dd4:	fe b0 fd 28 	rcall	80003824 <fat_check_mount_select>
80003dd8:	c4 e0       	breq	80003e74 <nav_file_name+0xac>
80003dda:	58 01       	cp.w	r1,0
80003ddc:	c0 30       	breq	80003de2 <nav_file_name+0x1a>
80003dde:	58 06       	cp.w	r6,0
80003de0:	c2 d0       	breq	80003e3a <nav_file_name+0x72>
80003de2:	4a 78       	lddpc	r8,80003e7c <nav_file_name+0xb4>
80003de4:	90 15       	ld.sh	r5,r8[0x2]
80003de6:	58 05       	cp.w	r5,0
80003de8:	c0 31       	brne	80003dee <nav_file_name+0x26>
80003dea:	30 13       	mov	r3,1
80003dec:	c0 58       	rjmp	80003df6 <nav_file_name+0x2e>
80003dee:	ea c9 00 01 	sub	r9,r5,1
80003df2:	30 03       	mov	r3,0
80003df4:	b0 19       	st.h	r8[0x2],r9
80003df6:	30 04       	mov	r4,0
80003df8:	4a 20       	lddpc	r0,80003e80 <nav_file_name+0xb8>
80003dfa:	4a 12       	lddpc	r2,80003e7c <nav_file_name+0xb4>
80003dfc:	c0 28       	rjmp	80003e00 <nav_file_name+0x38>
80003dfe:	30 13       	mov	r3,1
80003e00:	fe b0 fb ee 	rcall	800035dc <fat_read_dir>
80003e04:	c3 80       	breq	80003e74 <nav_file_name+0xac>
80003e06:	58 03       	cp.w	r3,0
80003e08:	c0 70       	breq	80003e16 <nav_file_name+0x4e>
80003e0a:	02 9a       	mov	r10,r1
80003e0c:	0c 9b       	mov	r11,r6
80003e0e:	0e 9c       	mov	r12,r7
80003e10:	fe b0 f7 98 	rcall	80002d40 <fat_entry_shortname>
80003e14:	c3 18       	rjmp	80003e76 <nav_file_name+0xae>
80003e16:	40 09       	lddsp	r9,sp[0x0]
80003e18:	02 9a       	mov	r10,r1
80003e1a:	0c 9b       	mov	r11,r6
80003e1c:	0e 9c       	mov	r12,r7
80003e1e:	fe b0 f8 11 	rcall	80002e40 <fat_entry_longname>
80003e22:	c0 e0       	breq	80003e3e <nav_file_name+0x76>
80003e24:	49 78       	lddpc	r8,80003e80 <nav_file_name+0xb8>
80003e26:	11 88       	ld.ub	r8,r8[0x0]
80003e28:	e6 08 18 00 	cp.b	r8,r3
80003e2c:	c0 50       	breq	80003e36 <nav_file_name+0x6e>
80003e2e:	8e 08       	ld.sh	r8,r7[0x0]
80003e30:	f0 04 00 04 	add	r4,r8,r4
80003e34:	ae 04       	st.h	r7[0x0],r4
80003e36:	49 28       	lddpc	r8,80003e7c <nav_file_name+0xb4>
80003e38:	b0 15       	st.h	r8[0x2],r5
80003e3a:	30 1c       	mov	r12,1
80003e3c:	c1 d8       	rjmp	80003e76 <nav_file_name+0xae>
80003e3e:	49 29       	lddpc	r9,80003e84 <nav_file_name+0xbc>
80003e40:	13 88       	ld.ub	r8,r9[0x0]
80003e42:	31 09       	mov	r9,16
80003e44:	f2 08 18 00 	cp.b	r8,r9
80003e48:	c0 70       	breq	80003e56 <nav_file_name+0x8e>
80003e4a:	a4 15       	st.h	r2[0x2],r5
80003e4c:	30 b9       	mov	r9,11
80003e4e:	f2 08 18 00 	cp.b	r8,r9
80003e52:	c1 11       	brne	80003e74 <nav_file_name+0xac>
80003e54:	cd 5b       	rjmp	80003dfe <nav_file_name+0x36>
80003e56:	01 88       	ld.ub	r8,r0[0x0]
80003e58:	30 09       	mov	r9,0
80003e5a:	f2 08 18 00 	cp.b	r8,r9
80003e5e:	c0 40       	breq	80003e66 <nav_file_name+0x9e>
80003e60:	2f 34       	sub	r4,-13
80003e62:	5c 84       	casts.h	r4
80003e64:	c0 48       	rjmp	80003e6c <nav_file_name+0xa4>
80003e66:	20 d6       	sub	r6,13
80003e68:	2f 37       	sub	r7,-13
80003e6a:	5c 56       	castu.b	r6
80003e6c:	84 18       	ld.sh	r8,r2[0x2]
80003e6e:	20 18       	sub	r8,1
80003e70:	a4 18       	st.h	r2[0x2],r8
80003e72:	cc 7b       	rjmp	80003e00 <nav_file_name+0x38>
80003e74:	30 0c       	mov	r12,0
80003e76:	2f fd       	sub	sp,-4
80003e78:	d8 32       	popm	r0-r7,pc
80003e7a:	d7 03       	nop
80003e7c:	00 00       	add	r0,r0
80003e7e:	09 2c       	ld.uh	r12,r4++
80003e80:	00 00       	add	r0,r0
80003e82:	09 31       	ld.ub	r1,r4++
80003e84:	00 00       	add	r0,r0
80003e86:	09 30       	ld.ub	r0,r4++

80003e88 <nav_filelist_set>:
80003e88:	d4 31       	pushm	r0-r7,lr
80003e8a:	20 4d       	sub	sp,16
80003e8c:	18 97       	mov	r7,r12
80003e8e:	50 0b       	stdsp	sp[0x0],r11
80003e90:	fe b0 fd 12 	rcall	800038b4 <fat_check_mount_noopen>
80003e94:	e0 80 00 8c 	breq	80003fac <nav_filelist_set+0x124>
80003e98:	4c 68       	lddpc	r8,80003fb0 <nav_filelist_set+0x128>
80003e9a:	4c 79       	lddpc	r9,80003fb4 <nav_filelist_set+0x12c>
80003e9c:	f1 0a 00 24 	ld.sh	r10,r8[36]
80003ea0:	10 96       	mov	r6,r8
80003ea2:	12 93       	mov	r3,r9
80003ea4:	30 04       	mov	r4,0
80003ea6:	92 19       	ld.sh	r9,r9[0x2]
80003ea8:	f1 38 00 2c 	ld.ub	r8,r8[44]
80003eac:	50 29       	stdsp	sp[0x8],r9
80003eae:	50 1a       	stdsp	sp[0x4],r10
80003eb0:	50 38       	stdsp	sp[0xc],r8
80003eb2:	3f f0       	mov	r0,-1
80003eb4:	08 95       	mov	r5,r4
80003eb6:	4c 11       	lddpc	r1,80003fb8 <nav_filelist_set+0x130>
80003eb8:	31 a2       	mov	r2,26
80003eba:	40 09       	lddsp	r9,sp[0x0]
80003ebc:	58 09       	cp.w	r9,0
80003ebe:	c0 31       	brne	80003ec4 <nav_filelist_set+0x3c>
80003ec0:	58 04       	cp.w	r4,0
80003ec2:	c0 a0       	breq	80003ed6 <nav_filelist_set+0x4e>
80003ec4:	86 18       	ld.sh	r8,r3[0x2]
80003ec6:	3f ea       	mov	r10,-2
80003ec8:	f4 08 19 00 	cp.h	r8,r10
80003ecc:	c0 31       	brne	80003ed2 <nav_filelist_set+0x4a>
80003ece:	30 89       	mov	r9,8
80003ed0:	c0 88       	rjmp	80003ee0 <nav_filelist_set+0x58>
80003ed2:	2f f8       	sub	r8,-1
80003ed4:	c1 88       	rjmp	80003f04 <nav_filelist_set+0x7c>
80003ed6:	86 18       	ld.sh	r8,r3[0x2]
80003ed8:	e0 08 19 00 	cp.h	r8,r0
80003edc:	c0 51       	brne	80003ee6 <nav_filelist_set+0x5e>
80003ede:	30 99       	mov	r9,9
80003ee0:	4b 68       	lddpc	r8,80003fb8 <nav_filelist_set+0x130>
80003ee2:	b0 89       	st.b	r8[0x0],r9
80003ee4:	c5 78       	rjmp	80003f92 <nav_filelist_set+0x10a>
80003ee6:	58 08       	cp.w	r8,0
80003ee8:	c0 d1       	brne	80003f02 <nav_filelist_set+0x7a>
80003eea:	ed 38 00 2c 	ld.ub	r8,r6[44]
80003eee:	ea 08 18 00 	cp.b	r8,r5
80003ef2:	cf 60       	breq	80003ede <nav_filelist_set+0x56>
80003ef4:	ed 38 00 2d 	ld.ub	r8,r6[45]
80003ef8:	ea 08 18 00 	cp.b	r8,r5
80003efc:	cf 11       	brne	80003ede <nav_filelist_set+0x56>
80003efe:	30 14       	mov	r4,1
80003f00:	c0 38       	rjmp	80003f06 <nav_filelist_set+0x7e>
80003f02:	20 18       	sub	r8,1
80003f04:	a6 18       	st.h	r3[0x2],r8
80003f06:	fe b0 fb 6b 	rcall	800035dc <fat_read_dir>
80003f0a:	c0 61       	brne	80003f16 <nav_filelist_set+0x8e>
80003f0c:	03 88       	ld.ub	r8,r1[0x0]
80003f0e:	e4 08 18 00 	cp.b	r8,r2
80003f12:	c1 f0       	breq	80003f50 <nav_filelist_set+0xc8>
80003f14:	c3 f8       	rjmp	80003f92 <nav_filelist_set+0x10a>
80003f16:	ed 38 00 2c 	ld.ub	r8,r6[44]
80003f1a:	ea 08 18 00 	cp.b	r8,r5
80003f1e:	5f 1c       	srne	r12
80003f20:	fe b0 f6 90 	rcall	80002c40 <fat_entry_check>
80003f24:	c1 60       	breq	80003f50 <nav_filelist_set+0xc8>
80003f26:	58 04       	cp.w	r4,0
80003f28:	cc 91       	brne	80003eba <nav_filelist_set+0x32>
80003f2a:	ed 08 00 24 	ld.sh	r8,r6[36]
80003f2e:	40 09       	lddsp	r9,sp[0x0]
80003f30:	58 09       	cp.w	r9,0
80003f32:	c0 30       	breq	80003f38 <nav_filelist_set+0xb0>
80003f34:	2f f8       	sub	r8,-1
80003f36:	c0 28       	rjmp	80003f3a <nav_filelist_set+0xb2>
80003f38:	20 18       	sub	r8,1
80003f3a:	ed 58 00 24 	st.h	r6[36],r8
80003f3e:	58 07       	cp.w	r7,0
80003f40:	c0 51       	brne	80003f4a <nav_filelist_set+0xc2>
80003f42:	fe b0 f6 ab 	rcall	80002c98 <fat_get_entry_info>
80003f46:	30 1c       	mov	r12,1
80003f48:	c3 28       	rjmp	80003fac <nav_filelist_set+0x124>
80003f4a:	20 17       	sub	r7,1
80003f4c:	5c 87       	casts.h	r7
80003f4e:	cb 6b       	rjmp	80003eba <nav_filelist_set+0x32>
80003f50:	03 88       	ld.ub	r8,r1[0x0]
80003f52:	30 aa       	mov	r10,10
80003f54:	f4 08 18 00 	cp.b	r8,r10
80003f58:	5f 09       	sreq	r9
80003f5a:	e4 08 18 00 	cp.b	r8,r2
80003f5e:	5f 08       	sreq	r8
80003f60:	12 48       	or	r8,r9
80003f62:	ea 08 18 00 	cp.b	r8,r5
80003f66:	ca a0       	breq	80003eba <nav_filelist_set+0x32>
80003f68:	58 04       	cp.w	r4,0
80003f6a:	c0 50       	breq	80003f74 <nav_filelist_set+0xec>
80003f6c:	ed 65 00 2c 	st.b	r6[44],r5
80003f70:	30 04       	mov	r4,0
80003f72:	ca 4b       	rjmp	80003eba <nav_filelist_set+0x32>
80003f74:	ed 39 00 2c 	ld.ub	r9,r6[44]
80003f78:	30 18       	mov	r8,1
80003f7a:	f0 09 18 00 	cp.b	r9,r8
80003f7e:	cb 00       	breq	80003ede <nav_filelist_set+0x56>
80003f80:	ed 39 00 2d 	ld.ub	r9,r6[45]
80003f84:	ea 09 18 00 	cp.b	r9,r5
80003f88:	ca b1       	brne	80003ede <nav_filelist_set+0x56>
80003f8a:	ed 68 00 2c 	st.b	r6[44],r8
80003f8e:	a6 10       	st.h	r3[0x2],r0
80003f90:	c9 5b       	rjmp	80003eba <nav_filelist_set+0x32>
80003f92:	48 88       	lddpc	r8,80003fb0 <nav_filelist_set+0x128>
80003f94:	40 39       	lddsp	r9,sp[0xc]
80003f96:	58 09       	cp.w	r9,0
80003f98:	5f 19       	srne	r9
80003f9a:	40 1a       	lddsp	r10,sp[0x4]
80003f9c:	f1 69 00 2c 	st.b	r8[44],r9
80003fa0:	f1 5a 00 24 	st.h	r8[36],r10
80003fa4:	40 29       	lddsp	r9,sp[0x8]
80003fa6:	48 48       	lddpc	r8,80003fb4 <nav_filelist_set+0x12c>
80003fa8:	30 0c       	mov	r12,0
80003faa:	b0 19       	st.h	r8[0x2],r9
80003fac:	2f cd       	sub	sp,-16
80003fae:	d8 32       	popm	r0-r7,pc
80003fb0:	00 00       	add	r0,r0
80003fb2:	08 e4       	st.h	--r4,r4
80003fb4:	00 00       	add	r0,r0
80003fb6:	09 2c       	ld.uh	r12,r4++
80003fb8:	00 00       	add	r0,r0
80003fba:	09 30       	ld.ub	r0,r4++

80003fbc <nav_filelist_findname>:
80003fbc:	d4 21       	pushm	r4-r7,lr
80003fbe:	18 96       	mov	r6,r12
80003fc0:	16 97       	mov	r7,r11
80003fc2:	30 1b       	mov	r11,1
80003fc4:	30 0c       	mov	r12,0
80003fc6:	c6 1f       	rcall	80003e88 <nav_filelist_set>
80003fc8:	c0 80       	breq	80003fd8 <nav_filelist_findname+0x1c>
80003fca:	30 0a       	mov	r10,0
80003fcc:	0e 99       	mov	r9,r7
80003fce:	14 9b       	mov	r11,r10
80003fd0:	0c 9c       	mov	r12,r6
80003fd2:	cf be       	rcall	80003dc8 <nav_file_name>
80003fd4:	cf 70       	breq	80003fc2 <nav_filelist_findname+0x6>
80003fd6:	30 1c       	mov	r12,1
80003fd8:	d8 22       	popm	r4-r7,pc
80003fda:	d7 03       	nop

80003fdc <nav_filelist_reset>:
80003fdc:	d4 01       	pushm	lr
80003fde:	fe b0 fc 6b 	rcall	800038b4 <fat_check_mount_noopen>
80003fe2:	c0 40       	breq	80003fea <nav_filelist_reset+0xe>
80003fe4:	fe b0 f6 94 	rcall	80002d0c <fat_clear_entry_info_and_ptr>
80003fe8:	30 1c       	mov	r12,1
80003fea:	d8 02       	popm	pc

80003fec <nav_dir_gotoparent>:
80003fec:	d4 21       	pushm	r4-r7,lr
80003fee:	fe b0 fc 63 	rcall	800038b4 <fat_check_mount_noopen>
80003ff2:	c2 e0       	breq	8000404e <nav_dir_gotoparent+0x62>
80003ff4:	49 87       	lddpc	r7,80004054 <nav_dir_gotoparent+0x68>
80003ff6:	6e 8c       	ld.w	r12,r7[0x20]
80003ff8:	58 0c       	cp.w	r12,0
80003ffa:	c0 31       	brne	80004000 <nav_dir_gotoparent+0x14>
80003ffc:	31 99       	mov	r9,25
80003ffe:	c2 58       	rjmp	80004048 <nav_dir_gotoparent+0x5c>
80004000:	30 19       	mov	r9,1
80004002:	49 68       	lddpc	r8,80004058 <nav_dir_gotoparent+0x6c>
80004004:	b0 19       	st.h	r8[0x2],r9
80004006:	fe b0 fa eb 	rcall	800035dc <fat_read_dir>
8000400a:	c2 20       	breq	8000404e <nav_dir_gotoparent+0x62>
8000400c:	fe b0 f6 46 	rcall	80002c98 <fat_get_entry_info>
80004010:	49 38       	lddpc	r8,8000405c <nav_dir_gotoparent+0x70>
80004012:	70 18       	ld.w	r8,r8[0x4]
80004014:	6e 86       	ld.w	r6,r7[0x20]
80004016:	8f 88       	st.w	r7[0x20],r8
80004018:	ce 2f       	rcall	80003fdc <nav_filelist_reset>
8000401a:	c1 a0       	breq	8000404e <nav_dir_gotoparent+0x62>
8000401c:	ef 39 00 2d 	ld.ub	r9,r7[45]
80004020:	30 08       	mov	r8,0
80004022:	f0 09 18 00 	cp.b	r9,r8
80004026:	c0 b0       	breq	8000403c <nav_dir_gotoparent+0x50>
80004028:	ef 39 00 2c 	ld.ub	r9,r7[44]
8000402c:	f0 09 18 00 	cp.b	r9,r8
80004030:	c0 60       	breq	8000403c <nav_dir_gotoparent+0x50>
80004032:	c0 f8       	rjmp	80004050 <nav_dir_gotoparent+0x64>
80004034:	6e 18       	ld.w	r8,r7[0x4]
80004036:	0c 38       	cp.w	r8,r6
80004038:	c0 31       	brne	8000403e <nav_dir_gotoparent+0x52>
8000403a:	c0 b8       	rjmp	80004050 <nav_dir_gotoparent+0x64>
8000403c:	48 87       	lddpc	r7,8000405c <nav_dir_gotoparent+0x70>
8000403e:	30 1b       	mov	r11,1
80004040:	30 0c       	mov	r12,0
80004042:	c2 3f       	rcall	80003e88 <nav_filelist_set>
80004044:	cf 81       	brne	80004034 <nav_dir_gotoparent+0x48>
80004046:	30 89       	mov	r9,8
80004048:	48 68       	lddpc	r8,80004060 <nav_dir_gotoparent+0x74>
8000404a:	b0 89       	st.b	r8[0x0],r9
8000404c:	d8 22       	popm	r4-r7,pc
8000404e:	d8 2a       	popm	r4-r7,pc,r12=0
80004050:	da 2a       	popm	r4-r7,pc,r12=1
80004052:	d7 03       	nop
80004054:	00 00       	add	r0,r0
80004056:	08 e4       	st.h	--r4,r4
80004058:	00 00       	add	r0,r0
8000405a:	09 2c       	ld.uh	r12,r4++
8000405c:	00 00       	add	r0,r0
8000405e:	06 a8       	st.w	r3++,r8
80004060:	00 00       	add	r0,r0
80004062:	09 30       	ld.ub	r0,r4++

80004064 <nav_dir_cd>:
80004064:	d4 01       	pushm	lr
80004066:	fe b0 fc 13 	rcall	8000388c <fat_check_mount_select_noopen>
8000406a:	c0 e0       	breq	80004086 <nav_dir_cd+0x22>
8000406c:	fe b0 f6 44 	rcall	80002cf4 <fat_entry_is_dir>
80004070:	c0 b0       	breq	80004086 <nav_dir_cd+0x22>
80004072:	48 69       	lddpc	r9,80004088 <nav_dir_cd+0x24>
80004074:	92 19       	ld.sh	r9,r9[0x2]
80004076:	48 68       	lddpc	r8,8000408c <nav_dir_cd+0x28>
80004078:	f1 59 00 1c 	st.h	r8[28],r9
8000407c:	48 59       	lddpc	r9,80004090 <nav_dir_cd+0x2c>
8000407e:	72 19       	ld.w	r9,r9[0x4]
80004080:	91 89       	st.w	r8[0x20],r9
80004082:	ca df       	rcall	80003fdc <nav_filelist_reset>
80004084:	d8 02       	popm	pc
80004086:	d8 0a       	popm	pc,r12=0
80004088:	00 00       	add	r0,r0
8000408a:	09 2c       	ld.uh	r12,r4++
8000408c:	00 00       	add	r0,r0
8000408e:	08 e4       	st.h	--r4,r4
80004090:	00 00       	add	r0,r0
80004092:	06 a8       	st.w	r3++,r8

80004094 <nav_partition_mount>:
80004094:	d4 01       	pushm	lr
80004096:	fe b0 fb 97 	rcall	800037c4 <fat_check_noopen>
8000409a:	c0 f0       	breq	800040b8 <nav_partition_mount+0x24>
8000409c:	48 88       	lddpc	r8,800040bc <nav_partition_mount+0x28>
8000409e:	11 89       	ld.ub	r9,r8[0x0]
800040a0:	30 08       	mov	r8,0
800040a2:	f0 09 18 00 	cp.b	r9,r8
800040a6:	c0 70       	breq	800040b4 <nav_partition_mount+0x20>
800040a8:	30 09       	mov	r9,0
800040aa:	48 68       	lddpc	r8,800040c0 <nav_partition_mount+0x2c>
800040ac:	91 89       	st.w	r8[0x20],r9
800040ae:	fe b0 f6 2f 	rcall	80002d0c <fat_clear_entry_info_and_ptr>
800040b2:	da 0a       	popm	pc,r12=1
800040b4:	fe b0 fc 06 	rcall	800038c0 <fat_mount>
800040b8:	d8 02       	popm	pc
800040ba:	d7 03       	nop
800040bc:	00 00       	add	r0,r0
800040be:	09 2c       	ld.uh	r12,r4++
800040c0:	00 00       	add	r0,r0
800040c2:	08 e4       	st.h	--r4,r4

800040c4 <nav_dir_root>:
800040c4:	d4 01       	pushm	lr
800040c6:	ce 7f       	rcall	80004094 <nav_partition_mount>
800040c8:	d8 02       	popm	pc
800040ca:	d7 03       	nop

800040cc <nav_drive_set>:
800040cc:	d4 21       	pushm	r4-r7,lr
800040ce:	18 97       	mov	r7,r12
800040d0:	fe b0 fb 7a 	rcall	800037c4 <fat_check_noopen>
800040d4:	c1 60       	breq	80004100 <nav_drive_set+0x34>
800040d6:	e0 a0 0f b9 	rcall	80006048 <get_nb_lun>
800040da:	f8 07 18 00 	cp.b	r7,r12
800040de:	c0 63       	brcs	800040ea <nav_drive_set+0x1e>
800040e0:	30 69       	mov	r9,6
800040e2:	48 98       	lddpc	r8,80004104 <nav_drive_set+0x38>
800040e4:	30 0c       	mov	r12,0
800040e6:	b0 89       	st.b	r8[0x0],r9
800040e8:	d8 22       	popm	r4-r7,pc
800040ea:	48 88       	lddpc	r8,80004108 <nav_drive_set+0x3c>
800040ec:	11 89       	ld.ub	r9,r8[0x0]
800040ee:	ee 09 18 00 	cp.b	r9,r7
800040f2:	c0 21       	brne	800040f6 <nav_drive_set+0x2a>
800040f4:	da 2a       	popm	r4-r7,pc,r12=1
800040f6:	b0 87       	st.b	r8[0x0],r7
800040f8:	30 09       	mov	r9,0
800040fa:	48 58       	lddpc	r8,8000410c <nav_drive_set+0x40>
800040fc:	30 1c       	mov	r12,1
800040fe:	b0 89       	st.b	r8[0x0],r9
80004100:	d8 22       	popm	r4-r7,pc
80004102:	d7 03       	nop
80004104:	00 00       	add	r0,r0
80004106:	09 30       	ld.ub	r0,r4++
80004108:	00 00       	add	r0,r0
8000410a:	08 e4       	st.h	--r4,r4
8000410c:	00 00       	add	r0,r0
8000410e:	09 2c       	ld.uh	r12,r4++

80004110 <nav_gotoindex>:
80004110:	d4 21       	pushm	r4-r7,lr
80004112:	18 97       	mov	r7,r12
80004114:	19 8c       	ld.ub	r12,r12[0x0]
80004116:	cd bf       	rcall	800040cc <nav_drive_set>
80004118:	c1 80       	breq	80004148 <nav_gotoindex+0x38>
8000411a:	cb df       	rcall	80004094 <nav_partition_mount>
8000411c:	c1 60       	breq	80004148 <nav_gotoindex+0x38>
8000411e:	6e 19       	ld.w	r9,r7[0x4]
80004120:	48 b8       	lddpc	r8,8000414c <nav_gotoindex+0x3c>
80004122:	91 89       	st.w	r8[0x20],r9
80004124:	c5 cf       	rcall	80003fdc <nav_filelist_reset>
80004126:	c0 a1       	brne	8000413a <nav_gotoindex+0x2a>
80004128:	c1 08       	rjmp	80004148 <nav_gotoindex+0x38>
8000412a:	30 1b       	mov	r11,1
8000412c:	30 0c       	mov	r12,0
8000412e:	ca de       	rcall	80003e88 <nav_filelist_set>
80004130:	18 95       	mov	r5,r12
80004132:	c0 51       	brne	8000413c <nav_gotoindex+0x2c>
80004134:	c5 4f       	rcall	80003fdc <nav_filelist_reset>
80004136:	0a 9c       	mov	r12,r5
80004138:	d8 22       	popm	r4-r7,pc
8000413a:	48 66       	lddpc	r6,80004150 <nav_gotoindex+0x40>
8000413c:	8c 19       	ld.sh	r9,r6[0x2]
8000413e:	8e 48       	ld.sh	r8,r7[0x8]
80004140:	f0 09 19 00 	cp.h	r9,r8
80004144:	cf 31       	brne	8000412a <nav_gotoindex+0x1a>
80004146:	da 2a       	popm	r4-r7,pc,r12=1
80004148:	d8 2a       	popm	r4-r7,pc,r12=0
8000414a:	d7 03       	nop
8000414c:	00 00       	add	r0,r0
8000414e:	08 e4       	st.h	--r4,r4
80004150:	00 00       	add	r0,r0
80004152:	09 2c       	ld.uh	r12,r4++

80004154 <nav_setcwd>:
80004154:	d4 31       	pushm	r0-r7,lr
80004156:	20 9d       	sub	sp,36
80004158:	18 97       	mov	r7,r12
8000415a:	16 96       	mov	r6,r11
8000415c:	14 92       	mov	r2,r10
8000415e:	fe b0 fb 33 	rcall	800037c4 <fat_check_noopen>
80004162:	e0 80 00 bc 	breq	800042da <nav_setcwd+0x186>
80004166:	4c fb       	lddpc	r11,800042a0 <nav_setcwd+0x14c>
80004168:	76 88       	ld.w	r8,r11[0x20]
8000416a:	17 8b       	ld.ub	r11,r11[0x0]
8000416c:	50 48       	stdsp	sp[0x10],r8
8000416e:	fb 6b 00 0c 	st.b	sp[12],r11
80004172:	4c db       	lddpc	r11,800042a4 <nav_setcwd+0x150>
80004174:	96 1b       	ld.sh	r11,r11[0x2]
80004176:	fb 5b 00 14 	st.h	sp[20],r11
8000417a:	fa c9 ff e8 	sub	r9,sp,-24
8000417e:	fa ca ff f4 	sub	r10,sp,-12
80004182:	74 2b       	ld.w	r11,r10[0x8]
80004184:	93 2b       	st.w	r9[0x8],r11
80004186:	50 2b       	stdsp	sp[0x8],r11
80004188:	f4 ea 00 00 	ld.d	r10,r10[0]
8000418c:	f2 eb 00 00 	st.d	r9[0],r10
80004190:	fa eb 00 00 	st.d	sp[0],r10
80004194:	35 c5       	mov	r5,92
80004196:	0f 88       	ld.ub	r8,r7[0x0]
80004198:	ea 08 18 00 	cp.b	r8,r5
8000419c:	5f 09       	sreq	r9
8000419e:	32 fb       	mov	r11,47
800041a0:	f6 08 18 00 	cp.b	r8,r11
800041a4:	5f 0a       	sreq	r10
800041a6:	12 4a       	or	r10,r9
800041a8:	30 09       	mov	r9,0
800041aa:	f2 0a 18 00 	cp.b	r10,r9
800041ae:	c0 60       	breq	800041ba <nav_setcwd+0x66>
800041b0:	c8 af       	rcall	800040c4 <nav_dir_root>
800041b2:	e0 80 00 90 	breq	800042d2 <nav_setcwd+0x17e>
800041b6:	2f f7       	sub	r7,-1
800041b8:	c5 88       	rjmp	80004268 <nav_setcwd+0x114>
800041ba:	0f 99       	ld.ub	r9,r7[0x1]
800041bc:	33 ac       	mov	r12,58
800041be:	f8 09 18 00 	cp.b	r9,r12
800041c2:	c1 d1       	brne	800041fc <nav_setcwd+0xa8>
800041c4:	0f ac       	ld.ub	r12,r7[0x2]
800041c6:	ea 0c 18 00 	cp.b	r12,r5
800041ca:	5f 05       	sreq	r5
800041cc:	f6 0c 18 00 	cp.b	r12,r11
800041d0:	5f 0b       	sreq	r11
800041d2:	0a 4b       	or	r11,r5
800041d4:	f4 0b 18 00 	cp.b	r11,r10
800041d8:	c1 20       	breq	800041fc <nav_setcwd+0xa8>
800041da:	4b 49       	lddpc	r9,800042a8 <nav_setcwd+0x154>
800041dc:	72 09       	ld.w	r9,r9[0x0]
800041de:	f2 08 07 09 	ld.ub	r9,r9[r8]
800041e2:	ed b9 00 01 	bld	r9,0x1
800041e6:	c0 21       	brne	800041ea <nav_setcwd+0x96>
800041e8:	22 08       	sub	r8,32
800041ea:	24 18       	sub	r8,65
800041ec:	f9 d8 c0 08 	bfextu	r12,r8,0x0,0x8
800041f0:	c6 ef       	rcall	800040cc <nav_drive_set>
800041f2:	c7 00       	breq	800042d2 <nav_setcwd+0x17e>
800041f4:	c5 0f       	rcall	80004094 <nav_partition_mount>
800041f6:	c6 e0       	breq	800042d2 <nav_setcwd+0x17e>
800041f8:	2f d7       	sub	r7,-3
800041fa:	c3 78       	rjmp	80004268 <nav_setcwd+0x114>
800041fc:	32 ea       	mov	r10,46
800041fe:	f4 08 18 00 	cp.b	r8,r10
80004202:	c1 71       	brne	80004230 <nav_setcwd+0xdc>
80004204:	32 f8       	mov	r8,47
80004206:	f0 09 18 00 	cp.b	r9,r8
8000420a:	5f 0a       	sreq	r10
8000420c:	35 c8       	mov	r8,92
8000420e:	f0 09 18 00 	cp.b	r9,r8
80004212:	5f 08       	sreq	r8
80004214:	f5 e8 10 08 	or	r8,r10,r8
80004218:	c0 c0       	breq	80004230 <nav_setcwd+0xdc>
8000421a:	2f e7       	sub	r7,-2
8000421c:	c2 68       	rjmp	80004268 <nav_setcwd+0x114>
8000421e:	ce 7e       	rcall	80003fec <nav_dir_gotoparent>
80004220:	c5 90       	breq	800042d2 <nav_setcwd+0x17e>
80004222:	0b 88       	ld.ub	r8,r5[0x0]
80004224:	e8 08 18 00 	cp.b	r8,r4
80004228:	c0 20       	breq	8000422c <nav_setcwd+0xd8>
8000422a:	2f f5       	sub	r5,-1
8000422c:	0a 97       	mov	r7,r5
8000422e:	c0 58       	rjmp	80004238 <nav_setcwd+0xe4>
80004230:	32 e3       	mov	r3,46
80004232:	32 f0       	mov	r0,47
80004234:	35 c1       	mov	r1,92
80004236:	30 04       	mov	r4,0
80004238:	0f 88       	ld.ub	r8,r7[0x0]
8000423a:	e6 08 18 00 	cp.b	r8,r3
8000423e:	c1 51       	brne	80004268 <nav_setcwd+0x114>
80004240:	0f 98       	ld.ub	r8,r7[0x1]
80004242:	e6 08 18 00 	cp.b	r8,r3
80004246:	c1 11       	brne	80004268 <nav_setcwd+0x114>
80004248:	ee c5 ff fe 	sub	r5,r7,-2
8000424c:	0b 88       	ld.ub	r8,r5[0x0]
8000424e:	e0 08 18 00 	cp.b	r8,r0
80004252:	5f 0a       	sreq	r10
80004254:	e2 08 18 00 	cp.b	r8,r1
80004258:	5f 09       	sreq	r9
8000425a:	f5 e9 10 09 	or	r9,r10,r9
8000425e:	e8 09 18 00 	cp.b	r9,r4
80004262:	cd e1       	brne	8000421e <nav_setcwd+0xca>
80004264:	58 08       	cp.w	r8,0
80004266:	cd c0       	breq	8000421e <nav_setcwd+0xca>
80004268:	cb ae       	rcall	80003fdc <nav_filelist_reset>
8000426a:	c3 40       	breq	800042d2 <nav_setcwd+0x17e>
8000426c:	30 05       	mov	r5,0
8000426e:	32 f3       	mov	r3,47
80004270:	35 c4       	mov	r4,92
80004272:	0f 88       	ld.ub	r8,r7[0x0]
80004274:	ea 08 18 00 	cp.b	r8,r5
80004278:	c0 31       	brne	8000427e <nav_setcwd+0x12a>
8000427a:	30 1c       	mov	r12,1
8000427c:	c2 f8       	rjmp	800042da <nav_setcwd+0x186>
8000427e:	0c 9b       	mov	r11,r6
80004280:	0e 9c       	mov	r12,r7
80004282:	c9 de       	rcall	80003fbc <nav_filelist_findname>
80004284:	c0 30       	breq	8000428a <nav_setcwd+0x136>
80004286:	30 08       	mov	r8,0
80004288:	c0 48       	rjmp	80004290 <nav_setcwd+0x13c>
8000428a:	58 02       	cp.w	r2,0
8000428c:	c2 30       	breq	800042d2 <nav_setcwd+0x17e>
8000428e:	30 18       	mov	r8,1
80004290:	2f f7       	sub	r7,-1
80004292:	0f 89       	ld.ub	r9,r7[0x0]
80004294:	58 09       	cp.w	r9,0
80004296:	c0 b1       	brne	800042ac <nav_setcwd+0x158>
80004298:	58 08       	cp.w	r8,0
8000429a:	ce c0       	breq	80004272 <nav_setcwd+0x11e>
8000429c:	c1 b8       	rjmp	800042d2 <nav_setcwd+0x17e>
8000429e:	d7 03       	nop
800042a0:	00 00       	add	r0,r0
800042a2:	08 e4       	st.h	--r4,r4
800042a4:	00 00       	add	r0,r0
800042a6:	09 2c       	ld.uh	r12,r4++
800042a8:	00 00       	add	r0,r0
800042aa:	00 f4       	st.b	--r0,r4
800042ac:	e8 09 18 00 	cp.b	r9,r4
800042b0:	5f 0a       	sreq	r10
800042b2:	e6 09 18 00 	cp.b	r9,r3
800042b6:	5f 09       	sreq	r9
800042b8:	14 49       	or	r9,r10
800042ba:	ea 09 18 00 	cp.b	r9,r5
800042be:	ce 90       	breq	80004290 <nav_setcwd+0x13c>
800042c0:	58 08       	cp.w	r8,0
800042c2:	c0 81       	brne	800042d2 <nav_setcwd+0x17e>
800042c4:	fe b0 f5 18 	rcall	80002cf4 <fat_entry_is_dir>
800042c8:	c0 50       	breq	800042d2 <nav_setcwd+0x17e>
800042ca:	cc de       	rcall	80004064 <nav_dir_cd>
800042cc:	c0 30       	breq	800042d2 <nav_setcwd+0x17e>
800042ce:	2f f7       	sub	r7,-1
800042d0:	cd 1b       	rjmp	80004272 <nav_setcwd+0x11e>
800042d2:	fa cc ff e8 	sub	r12,sp,-24
800042d6:	c1 df       	rcall	80004110 <nav_gotoindex>
800042d8:	30 0c       	mov	r12,0
800042da:	2f 7d       	sub	sp,-36
800042dc:	d8 32       	popm	r0-r7,pc
800042de:	d7 03       	nop

800042e0 <nav_select>:
800042e0:	d4 21       	pushm	r4-r7,lr
800042e2:	30 18       	mov	r8,1
800042e4:	18 97       	mov	r7,r12
800042e6:	f0 0c 18 00 	cp.b	r12,r8
800042ea:	e0 88 00 07 	brls	800042f8 <nav_select+0x18>
800042ee:	32 79       	mov	r9,39
800042f0:	48 98       	lddpc	r8,80004314 <nav_select+0x34>
800042f2:	30 0c       	mov	r12,0
800042f4:	b0 89       	st.b	r8[0x0],r9
800042f6:	d8 22       	popm	r4-r7,pc
800042f8:	48 86       	lddpc	r6,80004318 <nav_select+0x38>
800042fa:	0d 8c       	ld.ub	r12,r6[0x0]
800042fc:	ee 0c 18 00 	cp.b	r12,r7
80004300:	c0 21       	brne	80004304 <nav_select+0x24>
80004302:	da 2a       	popm	r4-r7,pc,r12=1
80004304:	fe b0 f6 b8 	rcall	80003074 <fat_invert_nav>
80004308:	0e 9c       	mov	r12,r7
8000430a:	fe b0 f6 b5 	rcall	80003074 <fat_invert_nav>
8000430e:	30 1c       	mov	r12,1
80004310:	ac 87       	st.b	r6[0x0],r7
80004312:	d8 22       	popm	r4-r7,pc
80004314:	00 00       	add	r0,r0
80004316:	09 30       	ld.ub	r0,r4++
80004318:	00 00       	add	r0,r0
8000431a:	09 90       	ld.ub	r0,r4[0x1]

8000431c <nav_reset>:
8000431c:	d4 31       	pushm	r0-r7,lr
8000431e:	49 08       	lddpc	r8,8000435c <nav_reset+0x40>
80004320:	30 07       	mov	r7,0
80004322:	b0 87       	st.b	r8[0x0],r7
80004324:	48 f8       	lddpc	r8,80004360 <nav_reset+0x44>
80004326:	b0 87       	st.b	r8[0x0],r7
80004328:	fe b0 f6 60 	rcall	80002fe8 <fat_cache_reset>
8000432c:	fe b0 f3 84 	rcall	80002a34 <fat_cache_clusterlist_reset>
80004330:	30 0c       	mov	r12,0
80004332:	cd 7f       	rcall	800042e0 <nav_select>
80004334:	48 c6       	lddpc	r6,80004364 <nav_reset+0x48>
80004336:	48 d3       	lddpc	r3,80004368 <nav_reset+0x4c>
80004338:	3f f4       	mov	r4,-1
8000433a:	48 d5       	lddpc	r5,8000436c <nav_reset+0x50>
8000433c:	ed 67 00 2d 	st.b	r6[45],r7
80004340:	a6 87       	st.b	r3[0x0],r7
80004342:	ac 84       	st.b	r6[0x0],r4
80004344:	aa 87       	st.b	r5[0x0],r7
80004346:	30 1c       	mov	r12,1
80004348:	cc cf       	rcall	800042e0 <nav_select>
8000434a:	48 a8       	lddpc	r8,80004370 <nav_reset+0x54>
8000434c:	a6 87       	st.b	r3[0x0],r7
8000434e:	ac 84       	st.b	r6[0x0],r4
80004350:	aa 87       	st.b	r5[0x0],r7
80004352:	ed 67 00 2d 	st.b	r6[45],r7
80004356:	b0 87       	st.b	r8[0x0],r7
80004358:	d8 32       	popm	r0-r7,pc
8000435a:	d7 03       	nop
8000435c:	00 00       	add	r0,r0
8000435e:	09 31       	ld.ub	r1,r4++
80004360:	00 00       	add	r0,r0
80004362:	06 ba       	st.h	r3++,r10
80004364:	00 00       	add	r0,r0
80004366:	08 e4       	st.h	--r4,r4
80004368:	00 00       	add	r0,r0
8000436a:	09 2c       	ld.uh	r12,r4++
8000436c:	00 00       	add	r0,r0
8000436e:	06 a8       	st.w	r3++,r8
80004370:	00 00       	add	r0,r0
80004372:	09 90       	ld.ub	r0,r4[0x1]

80004374 <LED_On>:
80004374:	49 18       	lddpc	r8,800043b8 <LED_On+0x44>
80004376:	f9 dc c0 04 	bfextu	r12,r12,0x0,0x4
8000437a:	70 0a       	ld.w	r10,r8[0x0]
8000437c:	49 09       	lddpc	r9,800043bc <LED_On+0x48>
8000437e:	f9 ea 10 0a 	or	r10,r12,r10
80004382:	21 09       	sub	r9,16
80004384:	91 0a       	st.w	r8[0x0],r10
80004386:	c0 d8       	rjmp	800043a0 <LED_On+0x2c>
80004388:	72 08       	ld.w	r8,r9[0x0]
8000438a:	72 1a       	ld.w	r10,r9[0x4]
8000438c:	a9 68       	lsl	r8,0x8
8000438e:	e0 28 f0 00 	sub	r8,61440
80004392:	f1 4a 00 58 	st.w	r8[88],r10
80004396:	f1 4a 00 44 	st.w	r8[68],r10
8000439a:	91 1a       	st.w	r8[0x4],r10
8000439c:	f8 0b 0a 4c 	lsr	r12,r12,r11
800043a0:	18 9b       	mov	r11,r12
800043a2:	5c 9b       	brev	r11
800043a4:	f6 0b 12 00 	clz	r11,r11
800043a8:	2f fb       	sub	r11,-1
800043aa:	f6 08 15 04 	lsl	r8,r11,0x4
800043ae:	10 09       	add	r9,r8
800043b0:	58 0c       	cp.w	r12,0
800043b2:	ce b1       	brne	80004388 <LED_On+0x14>
800043b4:	5e fc       	retal	r12
800043b6:	d7 03       	nop
800043b8:	00 00       	add	r0,r0
800043ba:	00 50       	eor	r0,r0
800043bc:	80 00       	ld.sh	r0,r0[0x0]
800043be:	6e 18       	ld.w	r8,r7[0x4]

800043c0 <LED_Off>:
800043c0:	49 28       	lddpc	r8,80004408 <LED_Off+0x48>
800043c2:	f9 dc c0 04 	bfextu	r12,r12,0x0,0x4
800043c6:	70 09       	ld.w	r9,r8[0x0]
800043c8:	f8 0a 11 ff 	rsub	r10,r12,-1
800043cc:	f5 e9 00 09 	and	r9,r10,r9
800043d0:	91 09       	st.w	r8[0x0],r9
800043d2:	48 f9       	lddpc	r9,8000440c <LED_Off+0x4c>
800043d4:	21 09       	sub	r9,16
800043d6:	c0 d8       	rjmp	800043f0 <LED_Off+0x30>
800043d8:	72 08       	ld.w	r8,r9[0x0]
800043da:	72 1a       	ld.w	r10,r9[0x4]
800043dc:	a9 68       	lsl	r8,0x8
800043de:	e0 28 f0 00 	sub	r8,61440
800043e2:	f1 4a 00 54 	st.w	r8[84],r10
800043e6:	f1 4a 00 44 	st.w	r8[68],r10
800043ea:	91 1a       	st.w	r8[0x4],r10
800043ec:	f8 0b 0a 4c 	lsr	r12,r12,r11
800043f0:	18 9b       	mov	r11,r12
800043f2:	5c 9b       	brev	r11
800043f4:	f6 0b 12 00 	clz	r11,r11
800043f8:	2f fb       	sub	r11,-1
800043fa:	f6 08 15 04 	lsl	r8,r11,0x4
800043fe:	10 09       	add	r9,r8
80004400:	58 0c       	cp.w	r12,0
80004402:	ce b1       	brne	800043d8 <LED_Off+0x18>
80004404:	5e fc       	retal	r12
80004406:	d7 03       	nop
80004408:	00 00       	add	r0,r0
8000440a:	00 50       	eor	r0,r0
8000440c:	80 00       	ld.sh	r0,r0[0x0]
8000440e:	6e 18       	ld.w	r8,r7[0x4]

80004410 <udi_msc_getsetting>:
80004410:	5e fd       	retal	0
80004412:	d7 03       	nop

80004414 <udi_msc_trans_ack>:
80004414:	48 48       	lddpc	r8,80004424 <udi_msc_trans_ack+0x10>
80004416:	58 0c       	cp.w	r12,0
80004418:	5f 19       	srne	r9
8000441a:	b0 89       	st.b	r8[0x0],r9
8000441c:	30 19       	mov	r9,1
8000441e:	48 38       	lddpc	r8,80004428 <udi_msc_trans_ack+0x14>
80004420:	b0 89       	st.b	r8[0x0],r9
80004422:	5e fc       	retal	r12
80004424:	00 00       	add	r0,r0
80004426:	09 91       	ld.ub	r1,r4[0x1]
80004428:	00 00       	add	r0,r0
8000442a:	00 54       	eor	r4,r0

8000442c <udi_msc_trans_block>:
8000442c:	d4 21       	pushm	r4-r7,lr
8000442e:	49 a7       	lddpc	r7,80004494 <udi_msc_trans_block+0x68>
80004430:	14 95       	mov	r5,r10
80004432:	12 96       	mov	r6,r9
80004434:	0f 88       	ld.ub	r8,r7[0x0]
80004436:	58 08       	cp.w	r8,0
80004438:	c2 c0       	breq	80004490 <udi_msc_trans_block+0x64>
8000443a:	30 08       	mov	r8,0
8000443c:	ae 88       	st.b	r7[0x0],r8
8000443e:	fe c8 00 2a 	sub	r8,pc,42
80004442:	58 09       	cp.w	r9,0
80004444:	f2 08 17 10 	movne	r8,r9
80004448:	e0 69 00 81 	mov	r9,129
8000444c:	16 9a       	mov	r10,r11
8000444e:	58 0c       	cp.w	r12,0
80004450:	f2 0c 17 10 	movne	r12,r9
80004454:	f9 bc 00 02 	moveq	r12,2
80004458:	30 0b       	mov	r11,0
8000445a:	0a 99       	mov	r9,r5
8000445c:	e0 a0 08 3c 	rcall	800054d4 <udd_ep_run>
80004460:	c0 41       	brne	80004468 <udi_msc_trans_block+0x3c>
80004462:	30 18       	mov	r8,1
80004464:	ae 88       	st.b	r7[0x0],r8
80004466:	d8 22       	popm	r4-r7,pc
80004468:	58 06       	cp.w	r6,0
8000446a:	c0 d1       	brne	80004484 <udi_msc_trans_block+0x58>
8000446c:	0f 88       	ld.ub	r8,r7[0x0]
8000446e:	58 08       	cp.w	r8,0
80004470:	cf e0       	breq	8000446c <udi_msc_trans_block+0x40>
80004472:	48 a8       	lddpc	r8,80004498 <udi_msc_trans_block+0x6c>
80004474:	11 89       	ld.ub	r9,r8[0x0]
80004476:	58 09       	cp.w	r9,0
80004478:	c0 c1       	brne	80004490 <udi_msc_trans_block+0x64>
8000447a:	11 8c       	ld.ub	r12,r8[0x0]
8000447c:	48 88       	lddpc	r8,8000449c <udi_msc_trans_block+0x70>
8000447e:	ec 1c 00 01 	eorl	r12,0x1
80004482:	c0 38       	rjmp	80004488 <udi_msc_trans_block+0x5c>
80004484:	48 68       	lddpc	r8,8000449c <udi_msc_trans_block+0x70>
80004486:	30 1c       	mov	r12,1
80004488:	70 29       	ld.w	r9,r8[0x8]
8000448a:	0a 19       	sub	r9,r5
8000448c:	91 29       	st.w	r8[0x8],r9
8000448e:	d8 22       	popm	r4-r7,pc
80004490:	d8 2a       	popm	r4-r7,pc,r12=0
80004492:	d7 03       	nop
80004494:	00 00       	add	r0,r0
80004496:	00 54       	eor	r4,r0
80004498:	00 00       	add	r0,r0
8000449a:	09 91       	ld.ub	r1,r4[0x1]
8000449c:	00 00       	add	r0,r0
8000449e:	00 90       	mov	r0,r0

800044a0 <udi_msc_sense_pass>:
800044a0:	d4 21       	pushm	r4-r7,lr
800044a2:	48 87       	lddpc	r7,800044c0 <udi_msc_sense_pass+0x20>
800044a4:	31 2a       	mov	r10,18
800044a6:	30 0b       	mov	r11,0
800044a8:	0e 9c       	mov	r12,r7
800044aa:	e0 a0 13 2b 	rcall	80006b00 <memset>
800044ae:	3f 08       	mov	r8,-16
800044b0:	ae 88       	st.b	r7[0x0],r8
800044b2:	30 a8       	mov	r8,10
800044b4:	30 09       	mov	r9,0
800044b6:	ae f8       	st.b	r7[0x7],r8
800044b8:	48 38       	lddpc	r8,800044c4 <udi_msc_sense_pass+0x24>
800044ba:	f1 69 00 0c 	st.b	r8[12],r9
800044be:	d8 22       	popm	r4-r7,pc
800044c0:	00 00       	add	r0,r0
800044c2:	03 4c       	ld.w	r12,--r1
800044c4:	00 00       	add	r0,r0
800044c6:	00 90       	mov	r0,r0

800044c8 <udi_msc_cbw_wait>:
800044c8:	d4 01       	pushm	lr
800044ca:	fe c8 fc 7e 	sub	r8,pc,-898
800044ce:	31 f9       	mov	r9,31
800044d0:	48 6a       	lddpc	r10,800044e8 <udi_msc_cbw_wait+0x20>
800044d2:	30 1b       	mov	r11,1
800044d4:	30 2c       	mov	r12,2
800044d6:	e0 a0 07 ff 	rcall	800054d4 <udd_ep_run>
800044da:	c0 61       	brne	800044e6 <udi_msc_cbw_wait+0x1e>
800044dc:	fe cb 00 14 	sub	r11,pc,20
800044e0:	30 2c       	mov	r12,2
800044e2:	e0 a0 06 e3 	rcall	800052a8 <udd_ep_wait_stall_clear>
800044e6:	d8 02       	popm	pc
800044e8:	00 00       	add	r0,r0
800044ea:	03 24       	ld.uh	r4,r1++

800044ec <udi_msc_csw_sent>:
800044ec:	d4 01       	pushm	lr
800044ee:	ce df       	rcall	800044c8 <udi_msc_cbw_wait>
800044f0:	d8 02       	popm	pc
800044f2:	d7 03       	nop

800044f4 <udi_msc_csw_send>:
800044f4:	d4 01       	pushm	lr
800044f6:	fe c8 00 0a 	sub	r8,pc,10
800044fa:	30 d9       	mov	r9,13
800044fc:	48 7a       	lddpc	r10,80004518 <udi_msc_csw_send+0x24>
800044fe:	30 0b       	mov	r11,0
80004500:	e0 6c 00 81 	mov	r12,129
80004504:	e0 a0 07 e8 	rcall	800054d4 <udd_ep_run>
80004508:	c0 71       	brne	80004516 <udi_msc_csw_send+0x22>
8000450a:	fe cb 00 16 	sub	r11,pc,22
8000450e:	e0 6c 00 81 	mov	r12,129
80004512:	e0 a0 06 cb 	rcall	800052a8 <udd_ep_wait_stall_clear>
80004516:	d8 02       	popm	pc
80004518:	00 00       	add	r0,r0
8000451a:	00 90       	mov	r0,r0

8000451c <udi_msc_csw_process>:
8000451c:	d4 01       	pushm	lr
8000451e:	48 e8       	lddpc	r8,80004554 <udi_msc_csw_process+0x38>
80004520:	70 28       	ld.w	r8,r8[0x8]
80004522:	58 08       	cp.w	r8,0
80004524:	c0 e0       	breq	80004540 <udi_msc_csw_process+0x24>
80004526:	48 d8       	lddpc	r8,80004558 <udi_msc_csw_process+0x3c>
80004528:	f1 39 00 0c 	ld.ub	r9,r8[12]
8000452c:	30 08       	mov	r8,0
8000452e:	f0 09 18 00 	cp.b	r9,r8
80004532:	c0 44       	brge	8000453a <udi_msc_csw_process+0x1e>
80004534:	e0 6c 00 81 	mov	r12,129
80004538:	c0 28       	rjmp	8000453c <udi_msc_csw_process+0x20>
8000453a:	30 2c       	mov	r12,2
8000453c:	e0 a0 06 38 	rcall	800051ac <udd_ep_set_halt>
80004540:	48 69       	lddpc	r9,80004558 <udi_msc_csw_process+0x3c>
80004542:	72 19       	ld.w	r9,r9[0x4]
80004544:	48 48       	lddpc	r8,80004554 <udi_msc_csw_process+0x38>
80004546:	91 19       	st.w	r8[0x4],r9
80004548:	f1 d9 80 02 	ldswp.w	r9,r8[8]
8000454c:	91 29       	st.w	r8[0x8],r9
8000454e:	cd 3f       	rcall	800044f4 <udi_msc_csw_send>
80004550:	d8 02       	popm	pc
80004552:	d7 03       	nop
80004554:	00 00       	add	r0,r0
80004556:	00 90       	mov	r0,r0
80004558:	00 00       	add	r0,r0
8000455a:	03 24       	ld.uh	r4,r1++

8000455c <udi_msc_data_sent>:
8000455c:	d4 21       	pushm	r4-r7,lr
8000455e:	16 97       	mov	r7,r11
80004560:	58 0c       	cp.w	r12,0
80004562:	c0 71       	brne	80004570 <udi_msc_data_sent+0x14>
80004564:	c9 ef       	rcall	800044a0 <udi_msc_sense_pass>
80004566:	48 48       	lddpc	r8,80004574 <udi_msc_data_sent+0x18>
80004568:	70 29       	ld.w	r9,r8[0x8]
8000456a:	0e 19       	sub	r9,r7
8000456c:	91 29       	st.w	r8[0x8],r9
8000456e:	cd 7f       	rcall	8000451c <udi_msc_csw_process>
80004570:	d8 22       	popm	r4-r7,pc
80004572:	d7 03       	nop
80004574:	00 00       	add	r0,r0
80004576:	00 90       	mov	r0,r0

80004578 <udi_msc_cbw_invalid>:
80004578:	d4 01       	pushm	lr
8000457a:	48 88       	lddpc	r8,80004598 <udi_msc_cbw_invalid+0x20>
8000457c:	11 89       	ld.ub	r9,r8[0x0]
8000457e:	30 08       	mov	r8,0
80004580:	f0 09 18 00 	cp.b	r9,r8
80004584:	c0 90       	breq	80004596 <udi_msc_cbw_invalid+0x1e>
80004586:	30 2c       	mov	r12,2
80004588:	e0 a0 06 12 	rcall	800051ac <udd_ep_set_halt>
8000458c:	fe cb 00 14 	sub	r11,pc,20
80004590:	30 2c       	mov	r12,2
80004592:	e0 a0 06 8b 	rcall	800052a8 <udd_ep_wait_stall_clear>
80004596:	d8 02       	popm	pc
80004598:	00 00       	add	r0,r0
8000459a:	03 44       	ld.w	r4,--r1

8000459c <udi_msc_csw_invalid>:
8000459c:	d4 01       	pushm	lr
8000459e:	48 98       	lddpc	r8,800045c0 <udi_msc_csw_invalid+0x24>
800045a0:	11 89       	ld.ub	r9,r8[0x0]
800045a2:	30 08       	mov	r8,0
800045a4:	f0 09 18 00 	cp.b	r9,r8
800045a8:	c0 b0       	breq	800045be <udi_msc_csw_invalid+0x22>
800045aa:	e0 6c 00 81 	mov	r12,129
800045ae:	e0 a0 05 ff 	rcall	800051ac <udd_ep_set_halt>
800045b2:	fe cb 00 16 	sub	r11,pc,22
800045b6:	e0 6c 00 81 	mov	r12,129
800045ba:	e0 a0 06 77 	rcall	800052a8 <udd_ep_wait_stall_clear>
800045be:	d8 02       	popm	pc
800045c0:	00 00       	add	r0,r0
800045c2:	03 44       	ld.w	r4,--r1

800045c4 <udi_msc_setup>:
800045c4:	d4 01       	pushm	lr
800045c6:	4a 08       	lddpc	r8,80004644 <udi_msc_setup+0x80>
800045c8:	30 0b       	mov	r11,0
800045ca:	11 8a       	ld.ub	r10,r8[0x0]
800045cc:	14 99       	mov	r9,r10
800045ce:	e2 19 00 60 	andl	r9,0x60,COH
800045d2:	f6 0a 18 00 	cp.b	r10,r11
800045d6:	c1 74       	brge	80004604 <udi_msc_setup+0x40>
800045d8:	e0 49 00 20 	cp.w	r9,32
800045dc:	c3 21       	brne	80004640 <udi_msc_setup+0x7c>
800045de:	11 9a       	ld.ub	r10,r8[0x1]
800045e0:	3f e9       	mov	r9,-2
800045e2:	f2 0a 18 00 	cp.b	r10,r9
800045e6:	c2 d1       	brne	80004640 <udi_msc_setup+0x7c>
800045e8:	90 39       	ld.sh	r9,r8[0x6]
800045ea:	30 1a       	mov	r10,1
800045ec:	f4 09 19 00 	cp.h	r9,r10
800045f0:	c2 81       	brne	80004640 <udi_msc_setup+0x7c>
800045f2:	90 1b       	ld.sh	r11,r8[0x2]
800045f4:	30 0a       	mov	r10,0
800045f6:	f4 0b 19 00 	cp.h	r11,r10
800045fa:	c2 31       	brne	80004640 <udi_msc_setup+0x7c>
800045fc:	b0 69       	st.h	r8[0xc],r9
800045fe:	49 39       	lddpc	r9,80004648 <udi_msc_setup+0x84>
80004600:	91 29       	st.w	r8[0x8],r9
80004602:	c1 e8       	rjmp	8000463e <udi_msc_setup+0x7a>
80004604:	e0 49 00 20 	cp.w	r9,32
80004608:	c1 c1       	brne	80004640 <udi_msc_setup+0x7c>
8000460a:	11 9a       	ld.ub	r10,r8[0x1]
8000460c:	3f f9       	mov	r9,-1
8000460e:	f2 0a 18 00 	cp.b	r10,r9
80004612:	c1 71       	brne	80004640 <udi_msc_setup+0x7c>
80004614:	90 39       	ld.sh	r9,r8[0x6]
80004616:	30 0a       	mov	r10,0
80004618:	f4 09 19 00 	cp.h	r9,r10
8000461c:	c1 21       	brne	80004640 <udi_msc_setup+0x7c>
8000461e:	90 18       	ld.sh	r8,r8[0x2]
80004620:	f2 08 19 00 	cp.h	r8,r9
80004624:	c0 e1       	brne	80004640 <udi_msc_setup+0x7c>
80004626:	48 a9       	lddpc	r9,8000464c <udi_msc_setup+0x88>
80004628:	b2 88       	st.b	r9[0x0],r8
8000462a:	48 a9       	lddpc	r9,80004650 <udi_msc_setup+0x8c>
8000462c:	30 2c       	mov	r12,2
8000462e:	b2 88       	st.b	r9[0x0],r8
80004630:	e0 a0 06 7e 	rcall	8000532c <udd_ep_abort>
80004634:	e0 6c 00 81 	mov	r12,129
80004638:	e0 a0 06 7a 	rcall	8000532c <udd_ep_abort>
8000463c:	c4 6f       	rcall	800044c8 <udi_msc_cbw_wait>
8000463e:	da 0a       	popm	pc,r12=1
80004640:	d8 0a       	popm	pc,r12=0
80004642:	d7 03       	nop
80004644:	00 00       	add	r0,r0
80004646:	09 94       	ld.ub	r4,r4[0x1]
80004648:	00 00       	add	r0,r0
8000464a:	03 14       	ld.sh	r4,r1++
8000464c:	00 00       	add	r0,r0
8000464e:	03 44       	ld.w	r4,--r1
80004650:	00 00       	add	r0,r0
80004652:	03 18       	ld.sh	r8,r1++

80004654 <udi_msc_disable>:
80004654:	d4 01       	pushm	lr
80004656:	30 09       	mov	r9,0
80004658:	48 38       	lddpc	r8,80004664 <udi_msc_disable+0x10>
8000465a:	b0 89       	st.b	r8[0x0],r9
8000465c:	e0 a0 10 80 	rcall	8000675c <main_msc_disable>
80004660:	d8 02       	popm	pc
80004662:	d7 03       	nop
80004664:	00 00       	add	r0,r0
80004666:	03 18       	ld.sh	r8,r1++

80004668 <udi_msc_enable>:
80004668:	d4 01       	pushm	lr
8000466a:	48 a9       	lddpc	r9,80004690 <udi_msc_enable+0x28>
8000466c:	30 08       	mov	r8,0
8000466e:	b2 88       	st.b	r9[0x0],r8
80004670:	48 99       	lddpc	r9,80004694 <udi_msc_enable+0x2c>
80004672:	b2 88       	st.b	r9[0x0],r8
80004674:	e0 a0 0c ea 	rcall	80006048 <get_nb_lun>
80004678:	48 88       	lddpc	r8,80004698 <udi_msc_enable+0x30>
8000467a:	b0 8c       	st.b	r8[0x0],r12
8000467c:	58 0c       	cp.w	r12,0
8000467e:	c0 80       	breq	8000468e <udi_msc_enable+0x26>
80004680:	20 1c       	sub	r12,1
80004682:	b0 8c       	st.b	r8[0x0],r12
80004684:	e0 a0 10 64 	rcall	8000674c <main_msc_enable>
80004688:	c0 30       	breq	8000468e <udi_msc_enable+0x26>
8000468a:	c1 ff       	rcall	800044c8 <udi_msc_cbw_wait>
8000468c:	da 0a       	popm	pc,r12=1
8000468e:	d8 0a       	popm	pc,r12=0
80004690:	00 00       	add	r0,r0
80004692:	03 18       	ld.sh	r8,r1++
80004694:	00 00       	add	r0,r0
80004696:	03 44       	ld.w	r4,--r1
80004698:	00 00       	add	r0,r0
8000469a:	03 14       	ld.sh	r4,r1++

8000469c <T.62>:
8000469c:	d4 21       	pushm	r4-r7,lr
8000469e:	48 d7       	lddpc	r7,800046d0 <T.62+0x34>
800046a0:	16 96       	mov	r6,r11
800046a2:	18 95       	mov	r5,r12
800046a4:	31 2a       	mov	r10,18
800046a6:	30 0b       	mov	r11,0
800046a8:	0e 9c       	mov	r12,r7
800046aa:	e0 a0 12 2b 	rcall	80006b00 <memset>
800046ae:	3f 08       	mov	r8,-16
800046b0:	ae 88       	st.b	r7[0x0],r8
800046b2:	30 a8       	mov	r8,10
800046b4:	ef 66 00 0d 	st.b	r7[13],r6
800046b8:	ae f8       	st.b	r7[0x7],r8
800046ba:	30 19       	mov	r9,1
800046bc:	48 68       	lddpc	r8,800046d4 <T.62+0x38>
800046be:	ed d6 c1 08 	bfextu	r6,r6,0x8,0x8
800046c2:	ae a5       	st.b	r7[0x2],r5
800046c4:	f1 69 00 0c 	st.b	r8[12],r9
800046c8:	ef 66 00 0c 	st.b	r7[12],r6
800046cc:	d8 22       	popm	r4-r7,pc
800046ce:	d7 03       	nop
800046d0:	00 00       	add	r0,r0
800046d2:	03 4c       	ld.w	r12,--r1
800046d4:	00 00       	add	r0,r0
800046d6:	00 90       	mov	r0,r0

800046d8 <udi_msc_data_send>:
800046d8:	d4 01       	pushm	lr
800046da:	16 99       	mov	r9,r11
800046dc:	30 1b       	mov	r11,1
800046de:	18 9a       	mov	r10,r12
800046e0:	fe c8 01 84 	sub	r8,pc,388
800046e4:	e0 6c 00 81 	mov	r12,129
800046e8:	e0 a0 06 f6 	rcall	800054d4 <udd_ep_run>
800046ec:	18 9b       	mov	r11,r12
800046ee:	c0 41       	brne	800046f6 <udi_msc_data_send+0x1e>
800046f0:	30 4c       	mov	r12,4
800046f2:	cd 5f       	rcall	8000469c <T.62>
800046f4:	c1 4f       	rcall	8000451c <udi_msc_csw_process>
800046f6:	d8 02       	popm	pc

800046f8 <udi_msc_cbw_validate>:
800046f8:	d4 01       	pushm	lr
800046fa:	48 b8       	lddpc	r8,80004724 <udi_msc_cbw_validate+0x2c>
800046fc:	30 09       	mov	r9,0
800046fe:	f1 38 00 0c 	ld.ub	r8,r8[12]
80004702:	f7 e8 20 08 	eor	r8,r11,r8
80004706:	f2 08 18 00 	cp.b	r8,r9
8000470a:	c0 65       	brlt	80004716 <udi_msc_cbw_validate+0x1e>
8000470c:	48 78       	lddpc	r8,80004728 <udi_msc_cbw_validate+0x30>
8000470e:	70 28       	ld.w	r8,r8[0x8]
80004710:	18 38       	cp.w	r8,r12
80004712:	c0 23       	brcs	80004716 <udi_msc_cbw_validate+0x1e>
80004714:	da 0a       	popm	pc,r12=1
80004716:	e0 6b 24 00 	mov	r11,9216
8000471a:	30 5c       	mov	r12,5
8000471c:	cc 0f       	rcall	8000469c <T.62>
8000471e:	cf fe       	rcall	8000451c <udi_msc_csw_process>
80004720:	d8 0a       	popm	pc,r12=0
80004722:	d7 03       	nop
80004724:	00 00       	add	r0,r0
80004726:	03 24       	ld.uh	r4,r1++
80004728:	00 00       	add	r0,r0
8000472a:	00 90       	mov	r0,r0

8000472c <udi_msc_spc_mode_sense>:
8000472c:	d4 21       	pushm	r4-r7,lr
8000472e:	4a 77       	lddpc	r7,800047c8 <udi_msc_spc_mode_sense+0x9c>
80004730:	18 96       	mov	r6,r12
80004732:	31 4a       	mov	r10,20
80004734:	30 0b       	mov	r11,0
80004736:	0e 9c       	mov	r12,r7
80004738:	e0 a0 11 e4 	rcall	80006b00 <memset>
8000473c:	4a 48       	lddpc	r8,800047cc <udi_msc_spc_mode_sense+0xa0>
8000473e:	58 06       	cp.w	r6,0
80004740:	c0 60       	breq	8000474c <udi_msc_spc_mode_sense+0x20>
80004742:	f1 38 00 17 	ld.ub	r8,r8[23]
80004746:	2f 87       	sub	r7,-8
80004748:	30 85       	mov	r5,8
8000474a:	c0 58       	rjmp	80004754 <udi_msc_spc_mode_sense+0x28>
8000474c:	f1 38 00 13 	ld.ub	r8,r8[19]
80004750:	2f c7       	sub	r7,-4
80004752:	30 45       	mov	r5,4
80004754:	49 e9       	lddpc	r9,800047cc <udi_msc_spc_mode_sense+0xa0>
80004756:	f3 3a 00 11 	ld.ub	r10,r9[17]
8000475a:	33 f9       	mov	r9,63
8000475c:	f5 da c0 06 	bfextu	r10,r10,0x0,0x6
80004760:	f2 0a 18 00 	cp.b	r10,r9
80004764:	5f 0b       	sreq	r11
80004766:	31 c9       	mov	r9,28
80004768:	f2 0a 18 00 	cp.b	r10,r9
8000476c:	5f 0a       	sreq	r10
8000476e:	f7 ea 10 0a 	or	r10,r11,r10
80004772:	c0 80       	breq	80004782 <udi_msc_spc_mode_sense+0x56>
80004774:	ae 89       	st.b	r7[0x0],r9
80004776:	30 a9       	mov	r9,10
80004778:	2f 45       	sub	r5,-12
8000477a:	ae 99       	st.b	r7[0x1],r9
8000477c:	5c 55       	castu.b	r5
8000477e:	30 59       	mov	r9,5
80004780:	ae b9       	st.b	r7[0x3],r9
80004782:	ea 08 18 00 	cp.b	r8,r5
80004786:	ea 08 17 20 	movhs	r8,r5
8000478a:	e0 6b 00 80 	mov	r11,128
8000478e:	ef d8 c0 08 	bfextu	r7,r8,0x0,0x8
80004792:	0e 9c       	mov	r12,r7
80004794:	cb 2f       	rcall	800046f8 <udi_msc_cbw_validate>
80004796:	c1 80       	breq	800047c6 <udi_msc_spc_mode_sense+0x9a>
80004798:	48 d8       	lddpc	r8,800047cc <udi_msc_spc_mode_sense+0xa0>
8000479a:	f1 3c 00 0d 	ld.ub	r12,r8[13]
8000479e:	e0 a0 0c 71 	rcall	80006080 <mem_wr_protect>
800047a2:	e0 68 00 80 	mov	r8,128
800047a6:	48 99       	lddpc	r9,800047c8 <udi_msc_spc_mode_sense+0x9c>
800047a8:	58 0c       	cp.w	r12,0
800047aa:	f9 b8 00 00 	moveq	r8,0
800047ae:	58 06       	cp.w	r6,0
800047b0:	c0 50       	breq	800047ba <udi_msc_spc_mode_sense+0x8e>
800047b2:	20 25       	sub	r5,2
800047b4:	b2 b8       	st.b	r9[0x3],r8
800047b6:	b2 05       	st.h	r9[0x0],r5
800047b8:	c0 48       	rjmp	800047c0 <udi_msc_spc_mode_sense+0x94>
800047ba:	20 15       	sub	r5,1
800047bc:	b2 a8       	st.b	r9[0x2],r8
800047be:	b2 85       	st.b	r9[0x0],r5
800047c0:	0e 9b       	mov	r11,r7
800047c2:	48 2c       	lddpc	r12,800047c8 <udi_msc_spc_mode_sense+0x9c>
800047c4:	c8 af       	rcall	800046d8 <udi_msc_data_send>
800047c6:	d8 22       	popm	r4-r7,pc
800047c8:	00 00       	add	r0,r0
800047ca:	03 64       	ld.uh	r4,--r1
800047cc:	00 00       	add	r0,r0
800047ce:	03 24       	ld.uh	r4,r1++

800047d0 <udi_msc_sbc_trans>:
800047d0:	d4 21       	pushm	r4-r7,lr
800047d2:	18 97       	mov	r7,r12
800047d4:	58 0c       	cp.w	r12,0
800047d6:	c0 d1       	brne	800047f0 <udi_msc_sbc_trans+0x20>
800047d8:	49 88       	lddpc	r8,80004838 <udi_msc_sbc_trans+0x68>
800047da:	f1 3c 00 0d 	ld.ub	r12,r8[13]
800047de:	e0 a0 0c 51 	rcall	80006080 <mem_wr_protect>
800047e2:	c0 70       	breq	800047f0 <udi_msc_sbc_trans+0x20>
800047e4:	e0 6b 27 00 	mov	r11,9984
800047e8:	30 7c       	mov	r12,7
800047ea:	c5 9f       	rcall	8000469c <T.62>
800047ec:	c9 8e       	rcall	8000451c <udi_msc_csw_process>
800047ee:	d8 22       	popm	r4-r7,pc
800047f0:	49 28       	lddpc	r8,80004838 <udi_msc_sbc_trans+0x68>
800047f2:	f1 3b 00 17 	ld.ub	r11,r8[23]
800047f6:	49 2a       	lddpc	r10,8000483c <udi_msc_sbc_trans+0x6c>
800047f8:	b4 9b       	st.b	r10[0x1],r11
800047fa:	f1 3b 00 11 	ld.ub	r11,r8[17]
800047fe:	49 19       	lddpc	r9,80004840 <udi_msc_sbc_trans+0x70>
80004800:	b2 8b       	st.b	r9[0x0],r11
80004802:	f1 3b 00 12 	ld.ub	r11,r8[18]
80004806:	b2 9b       	st.b	r9[0x1],r11
80004808:	f1 3b 00 13 	ld.ub	r11,r8[19]
8000480c:	b2 ab       	st.b	r9[0x2],r11
8000480e:	f1 3b 00 14 	ld.ub	r11,r8[20]
80004812:	b2 bb       	st.b	r9[0x3],r11
80004814:	f1 38 00 16 	ld.ub	r8,r8[22]
80004818:	e0 6b 00 80 	mov	r11,128
8000481c:	b4 88       	st.b	r10[0x0],r8
8000481e:	58 07       	cp.w	r7,0
80004820:	f9 bb 00 00 	moveq	r11,0
80004824:	94 8c       	ld.uh	r12,r10[0x0]
80004826:	a9 7c       	lsl	r12,0x9
80004828:	c6 8f       	rcall	800046f8 <udi_msc_cbw_validate>
8000482a:	c0 60       	breq	80004836 <udi_msc_sbc_trans+0x66>
8000482c:	48 68       	lddpc	r8,80004844 <udi_msc_sbc_trans+0x74>
8000482e:	30 19       	mov	r9,1
80004830:	b0 87       	st.b	r8[0x0],r7
80004832:	48 68       	lddpc	r8,80004848 <udi_msc_sbc_trans+0x78>
80004834:	b0 89       	st.b	r8[0x0],r9
80004836:	d8 22       	popm	r4-r7,pc
80004838:	00 00       	add	r0,r0
8000483a:	03 24       	ld.uh	r4,r1++
8000483c:	00 00       	add	r0,r0
8000483e:	03 46       	ld.w	r6,--r1
80004840:	00 00       	add	r0,r0
80004842:	03 48       	ld.w	r8,--r1
80004844:	00 00       	add	r0,r0
80004846:	03 60       	ld.uh	r0,--r1
80004848:	00 00       	add	r0,r0
8000484a:	03 18       	ld.sh	r8,r1++

8000484c <udi_msc_cbw_received>:
8000484c:	d4 21       	pushm	r4-r7,lr
8000484e:	58 0c       	cp.w	r12,0
80004850:	e0 81 01 0b 	brne	80004a66 <udi_msc_cbw_received+0x21a>
80004854:	59 fb       	cp.w	r11,31
80004856:	c0 91       	brne	80004868 <udi_msc_cbw_received+0x1c>
80004858:	4c 56       	lddpc	r6,8000496c <udi_msc_cbw_received+0x120>
8000485a:	e0 6a 42 43 	mov	r10,16963
8000485e:	ea 1a 55 53 	orh	r10,0x5553
80004862:	6c 08       	ld.w	r8,r6[0x0]
80004864:	14 38       	cp.w	r8,r10
80004866:	c0 70       	breq	80004874 <udi_msc_cbw_received+0x28>
80004868:	30 19       	mov	r9,1
8000486a:	4c 28       	lddpc	r8,80004970 <udi_msc_cbw_received+0x124>
8000486c:	b0 89       	st.b	r8[0x0],r9
8000486e:	c8 5e       	rcall	80004578 <udi_msc_cbw_invalid>
80004870:	c9 6e       	rcall	8000459c <udi_msc_csw_invalid>
80004872:	d8 22       	popm	r4-r7,pc
80004874:	ed 38 00 0d 	ld.ub	r8,r6[13]
80004878:	f1 d8 c0 04 	bfextu	r8,r8,0x0,0x4
8000487c:	ed 68 00 0d 	st.b	r6[13],r8
80004880:	4b da       	lddpc	r10,80004974 <udi_msc_cbw_received+0x128>
80004882:	15 8a       	ld.ub	r10,r10[0x0]
80004884:	f0 0a 18 00 	cp.b	r10,r8
80004888:	c6 e3       	brcs	80004964 <udi_msc_cbw_received+0x118>
8000488a:	ed da 80 02 	ldswp.w	r10,r6[8]
8000488e:	4b b8       	lddpc	r8,80004978 <udi_msc_cbw_received+0x12c>
80004890:	91 2a       	st.w	r8[0x8],r10
80004892:	ed 38 00 0f 	ld.ub	r8,r6[15]
80004896:	31 ea       	mov	r10,30
80004898:	f4 08 18 00 	cp.b	r8,r10
8000489c:	e0 80 00 d7 	breq	80004a4a <udi_msc_cbw_received+0x1fe>
800048a0:	e0 8b 00 1d 	brhi	800048da <udi_msc_cbw_received+0x8e>
800048a4:	31 2a       	mov	r10,18
800048a6:	f4 08 18 00 	cp.b	r8,r10
800048aa:	c4 60       	breq	80004936 <udi_msc_cbw_received+0xea>
800048ac:	e0 8b 00 0c 	brhi	800048c4 <udi_msc_cbw_received+0x78>
800048b0:	f8 08 18 00 	cp.b	r8,r12
800048b4:	e0 80 00 97 	breq	800049e2 <udi_msc_cbw_received+0x196>
800048b8:	30 39       	mov	r9,3
800048ba:	f2 08 18 00 	cp.b	r8,r9
800048be:	e0 81 00 ce 	brne	80004a5a <udi_msc_cbw_received+0x20e>
800048c2:	c2 98       	rjmp	80004914 <udi_msc_cbw_received+0xc8>
800048c4:	31 a9       	mov	r9,26
800048c6:	f2 08 18 00 	cp.b	r8,r9
800048ca:	e0 80 00 8a 	breq	800049de <udi_msc_cbw_received+0x192>
800048ce:	31 b9       	mov	r9,27
800048d0:	f2 08 18 00 	cp.b	r8,r9
800048d4:	e0 81 00 c3 	brne	80004a5a <udi_msc_cbw_received+0x20e>
800048d8:	cb 98       	rjmp	80004a4a <udi_msc_cbw_received+0x1fe>
800048da:	32 a9       	mov	r9,42
800048dc:	f2 08 18 00 	cp.b	r8,r9
800048e0:	e0 80 00 bb 	breq	80004a56 <udi_msc_cbw_received+0x20a>
800048e4:	e0 8b 00 0d 	brhi	800048fe <udi_msc_cbw_received+0xb2>
800048e8:	32 59       	mov	r9,37
800048ea:	f2 08 18 00 	cp.b	r8,r9
800048ee:	e0 80 00 8a 	breq	80004a02 <udi_msc_cbw_received+0x1b6>
800048f2:	32 89       	mov	r9,40
800048f4:	f2 08 18 00 	cp.b	r8,r9
800048f8:	e0 81 00 b1 	brne	80004a5a <udi_msc_cbw_received+0x20e>
800048fc:	ca c8       	rjmp	80004a54 <udi_msc_cbw_received+0x208>
800048fe:	32 f9       	mov	r9,47
80004900:	f2 08 18 00 	cp.b	r8,r9
80004904:	e0 80 00 a3 	breq	80004a4a <udi_msc_cbw_received+0x1fe>
80004908:	35 a9       	mov	r9,90
8000490a:	f2 08 18 00 	cp.b	r8,r9
8000490e:	e0 81 00 a6 	brne	80004a5a <udi_msc_cbw_received+0x20e>
80004912:	c6 58       	rjmp	800049dc <udi_msc_cbw_received+0x190>
80004914:	49 68       	lddpc	r8,8000496c <udi_msc_cbw_received+0x120>
80004916:	f1 37 00 13 	ld.ub	r7,r8[19]
8000491a:	31 28       	mov	r8,18
8000491c:	e0 6b 00 80 	mov	r11,128
80004920:	ee 08 18 00 	cp.b	r8,r7
80004924:	f9 b7 03 12 	movlo	r7,18
80004928:	0e 9c       	mov	r12,r7
8000492a:	ce 7e       	rcall	800046f8 <udi_msc_cbw_validate>
8000492c:	e0 80 00 9d 	breq	80004a66 <udi_msc_cbw_received+0x21a>
80004930:	0e 9b       	mov	r11,r7
80004932:	49 3c       	lddpc	r12,8000497c <udi_msc_cbw_received+0x130>
80004934:	c8 98       	rjmp	80004a46 <udi_msc_cbw_received+0x1fa>
80004936:	32 48       	mov	r8,36
80004938:	ed 37 00 13 	ld.ub	r7,r6[19]
8000493c:	e0 6b 00 80 	mov	r11,128
80004940:	ee 08 18 00 	cp.b	r8,r7
80004944:	f9 b7 03 24 	movlo	r7,36
80004948:	0e 9c       	mov	r12,r7
8000494a:	cd 7e       	rcall	800046f8 <udi_msc_cbw_validate>
8000494c:	e0 80 00 8d 	breq	80004a66 <udi_msc_cbw_received+0x21a>
80004950:	ed 38 00 10 	ld.ub	r8,r6[16]
80004954:	f1 d8 c0 02 	bfextu	r8,r8,0x0,0x2
80004958:	c0 61       	brne	80004964 <udi_msc_cbw_received+0x118>
8000495a:	ed 39 00 11 	ld.ub	r9,r6[17]
8000495e:	f0 09 18 00 	cp.b	r9,r8
80004962:	c0 f0       	breq	80004980 <udi_msc_cbw_received+0x134>
80004964:	e0 6b 24 00 	mov	r11,9216
80004968:	30 5c       	mov	r12,5
8000496a:	c4 a8       	rjmp	800049fe <udi_msc_cbw_received+0x1b2>
8000496c:	00 00       	add	r0,r0
8000496e:	03 24       	ld.uh	r4,r1++
80004970:	00 00       	add	r0,r0
80004972:	03 44       	ld.w	r4,--r1
80004974:	00 00       	add	r0,r0
80004976:	03 14       	ld.sh	r4,r1++
80004978:	00 00       	add	r0,r0
8000497a:	00 90       	mov	r0,r0
8000497c:	00 00       	add	r0,r0
8000497e:	03 4c       	ld.w	r12,--r1
80004980:	4b a8       	lddpc	r8,80004a68 <udi_msc_cbw_received+0x21c>
80004982:	f1 3c 00 0d 	ld.ub	r12,r8[13]
80004986:	e0 a0 0b 87 	rcall	80006094 <mem_name>
8000498a:	31 0a       	mov	r10,16
8000498c:	18 9b       	mov	r11,r12
8000498e:	4b 86       	lddpc	r6,80004a6c <udi_msc_cbw_received+0x220>
80004990:	2f 06       	sub	r6,-16
80004992:	0c 9c       	mov	r12,r6
80004994:	e0 a0 10 12 	rcall	800069b8 <memcpy>
80004998:	30 08       	mov	r8,0
8000499a:	31 0a       	mov	r10,16
8000499c:	10 99       	mov	r9,r8
8000499e:	f0 cb ff ff 	sub	r11,r8,-1
800049a2:	0d 8c       	ld.ub	r12,r6[0x0]
800049a4:	f2 0c 18 00 	cp.b	r12,r9
800049a8:	c1 10       	breq	800049ca <udi_msc_cbw_received+0x17e>
800049aa:	f1 db c0 08 	bfextu	r8,r11,0x0,0x8
800049ae:	2f f6       	sub	r6,-1
800049b0:	f4 08 18 00 	cp.b	r8,r10
800049b4:	cf 51       	brne	8000499e <udi_msc_cbw_received+0x152>
800049b6:	c0 a8       	rjmp	800049ca <udi_msc_cbw_received+0x17e>
800049b8:	f0 cc ff ff 	sub	r12,r8,-1
800049bc:	f4 08 00 08 	add	r8,r10,r8
800049c0:	f1 69 00 10 	st.b	r8[16],r9
800049c4:	f1 dc c0 08 	bfextu	r8,r12,0x0,0x8
800049c8:	c0 48       	rjmp	800049d0 <udi_msc_cbw_received+0x184>
800049ca:	31 0b       	mov	r11,16
800049cc:	4a 8a       	lddpc	r10,80004a6c <udi_msc_cbw_received+0x220>
800049ce:	32 09       	mov	r9,32
800049d0:	f6 08 18 00 	cp.b	r8,r11
800049d4:	cf 21       	brne	800049b8 <udi_msc_cbw_received+0x16c>
800049d6:	0e 9b       	mov	r11,r7
800049d8:	4a 5c       	lddpc	r12,80004a6c <udi_msc_cbw_received+0x220>
800049da:	c3 68       	rjmp	80004a46 <udi_msc_cbw_received+0x1fa>
800049dc:	30 1c       	mov	r12,1
800049de:	ca 7e       	rcall	8000472c <udi_msc_spc_mode_sense>
800049e0:	d8 22       	popm	r4-r7,pc
800049e2:	ed 3c 00 0d 	ld.ub	r12,r6[13]
800049e6:	e0 a0 0b 33 	rcall	8000604c <mem_test_unit_ready>
800049ea:	58 2c       	cp.w	r12,2
800049ec:	c0 60       	breq	800049f8 <udi_msc_cbw_received+0x1ac>
800049ee:	58 3c       	cp.w	r12,3
800049f0:	c1 c0       	breq	80004a28 <udi_msc_cbw_received+0x1dc>
800049f2:	58 0c       	cp.w	r12,0
800049f4:	c2 b0       	breq	80004a4a <udi_msc_cbw_received+0x1fe>
800049f6:	c2 08       	rjmp	80004a36 <udi_msc_cbw_received+0x1ea>
800049f8:	e0 6b 3a 00 	mov	r11,14848
800049fc:	30 2c       	mov	r12,2
800049fe:	c4 fe       	rcall	8000469c <T.62>
80004a00:	c2 78       	rjmp	80004a4e <udi_msc_cbw_received+0x202>
80004a02:	e0 6b 00 80 	mov	r11,128
80004a06:	30 8c       	mov	r12,8
80004a08:	c7 8e       	rcall	800046f8 <udi_msc_cbw_validate>
80004a0a:	c2 e0       	breq	80004a66 <udi_msc_cbw_received+0x21a>
80004a0c:	49 78       	lddpc	r8,80004a68 <udi_msc_cbw_received+0x21c>
80004a0e:	49 97       	lddpc	r7,80004a70 <udi_msc_cbw_received+0x224>
80004a10:	f1 3c 00 0d 	ld.ub	r12,r8[13]
80004a14:	0e 9b       	mov	r11,r7
80004a16:	e0 a0 0b 25 	rcall	80006060 <mem_read_capacity>
80004a1a:	58 2c       	cp.w	r12,2
80004a1c:	c0 a0       	breq	80004a30 <udi_msc_cbw_received+0x1e4>
80004a1e:	58 3c       	cp.w	r12,3
80004a20:	c0 40       	breq	80004a28 <udi_msc_cbw_received+0x1dc>
80004a22:	58 0c       	cp.w	r12,0
80004a24:	c0 c0       	breq	80004a3c <udi_msc_cbw_received+0x1f0>
80004a26:	c0 88       	rjmp	80004a36 <udi_msc_cbw_received+0x1ea>
80004a28:	e0 6b 28 00 	mov	r11,10240
80004a2c:	30 6c       	mov	r12,6
80004a2e:	ce 8b       	rjmp	800049fe <udi_msc_cbw_received+0x1b2>
80004a30:	e0 6b 3a 00 	mov	r11,14848
80004a34:	ce 5b       	rjmp	800049fe <udi_msc_cbw_received+0x1b2>
80004a36:	30 0b       	mov	r11,0
80004a38:	30 4c       	mov	r12,4
80004a3a:	ce 2b       	rjmp	800049fe <udi_msc_cbw_received+0x1b2>
80004a3c:	e0 68 02 00 	mov	r8,512
80004a40:	0e 9c       	mov	r12,r7
80004a42:	8f 18       	st.w	r7[0x4],r8
80004a44:	30 8b       	mov	r11,8
80004a46:	c4 9e       	rcall	800046d8 <udi_msc_data_send>
80004a48:	d8 22       	popm	r4-r7,pc
80004a4a:	fe b0 fd 2b 	rcall	800044a0 <udi_msc_sense_pass>
80004a4e:	fe b0 fd 67 	rcall	8000451c <udi_msc_csw_process>
80004a52:	d8 22       	popm	r4-r7,pc
80004a54:	30 1c       	mov	r12,1
80004a56:	cb de       	rcall	800047d0 <udi_msc_sbc_trans>
80004a58:	d8 22       	popm	r4-r7,pc
80004a5a:	e0 6b 20 00 	mov	r11,8192
80004a5e:	30 5c       	mov	r12,5
80004a60:	c1 ee       	rcall	8000469c <T.62>
80004a62:	fe b0 fd 5d 	rcall	8000451c <udi_msc_csw_process>
80004a66:	d8 22       	popm	r4-r7,pc
80004a68:	00 00       	add	r0,r0
80004a6a:	03 24       	ld.uh	r4,r1++
80004a6c:	00 00       	add	r0,r0
80004a6e:	00 6c       	and	r12,r0
80004a70:	00 00       	add	r0,r0
80004a72:	03 1c       	ld.sh	r12,r1++

80004a74 <udi_msc_process_trans>:
80004a74:	d4 01       	pushm	lr
80004a76:	49 b8       	lddpc	r8,80004ae0 <udi_msc_process_trans+0x6c>
80004a78:	30 0a       	mov	r10,0
80004a7a:	11 89       	ld.ub	r9,r8[0x0]
80004a7c:	f4 09 18 00 	cp.b	r9,r10
80004a80:	c0 21       	brne	80004a84 <udi_msc_process_trans+0x10>
80004a82:	d8 0a       	popm	pc,r12=0
80004a84:	b0 8a       	st.b	r8[0x0],r10
80004a86:	49 88       	lddpc	r8,80004ae4 <udi_msc_process_trans+0x70>
80004a88:	49 8b       	lddpc	r11,80004ae8 <udi_msc_process_trans+0x74>
80004a8a:	11 8c       	ld.ub	r12,r8[0x0]
80004a8c:	49 89       	lddpc	r9,80004aec <udi_msc_process_trans+0x78>
80004a8e:	49 98       	lddpc	r8,80004af0 <udi_msc_process_trans+0x7c>
80004a90:	f4 0c 18 00 	cp.b	r12,r10
80004a94:	c0 80       	breq	80004aa4 <udi_msc_process_trans+0x30>
80004a96:	96 8a       	ld.uh	r10,r11[0x0]
80004a98:	f1 3c 00 0d 	ld.ub	r12,r8[13]
80004a9c:	72 0b       	ld.w	r11,r9[0x0]
80004a9e:	e0 a0 0b 4d 	rcall	80006138 <memory_2_usb>
80004aa2:	c0 78       	rjmp	80004ab0 <udi_msc_process_trans+0x3c>
80004aa4:	96 8a       	ld.uh	r10,r11[0x0]
80004aa6:	f1 3c 00 0d 	ld.ub	r12,r8[13]
80004aaa:	72 0b       	ld.w	r11,r9[0x0]
80004aac:	e0 a0 0b 14 	rcall	800060d4 <usb_2_memory>
80004ab0:	58 2c       	cp.w	r12,2
80004ab2:	c0 c0       	breq	80004aca <udi_msc_process_trans+0x56>
80004ab4:	58 3c       	cp.w	r12,3
80004ab6:	c0 60       	breq	80004ac2 <udi_msc_process_trans+0x4e>
80004ab8:	58 0c       	cp.w	r12,0
80004aba:	c0 b1       	brne	80004ad0 <udi_msc_process_trans+0x5c>
80004abc:	fe b0 fc f2 	rcall	800044a0 <udi_msc_sense_pass>
80004ac0:	c0 c8       	rjmp	80004ad8 <udi_msc_process_trans+0x64>
80004ac2:	e0 6b 28 00 	mov	r11,10240
80004ac6:	30 6c       	mov	r12,6
80004ac8:	c0 68       	rjmp	80004ad4 <udi_msc_process_trans+0x60>
80004aca:	e0 6b 3a 00 	mov	r11,14848
80004ace:	c0 38       	rjmp	80004ad4 <udi_msc_process_trans+0x60>
80004ad0:	30 0b       	mov	r11,0
80004ad2:	30 4c       	mov	r12,4
80004ad4:	fe b0 fd e4 	rcall	8000469c <T.62>
80004ad8:	fe b0 fd 22 	rcall	8000451c <udi_msc_csw_process>
80004adc:	da 0a       	popm	pc,r12=1
80004ade:	d7 03       	nop
80004ae0:	00 00       	add	r0,r0
80004ae2:	03 18       	ld.sh	r8,r1++
80004ae4:	00 00       	add	r0,r0
80004ae6:	03 60       	ld.uh	r0,--r1
80004ae8:	00 00       	add	r0,r0
80004aea:	03 46       	ld.w	r6,--r1
80004aec:	00 00       	add	r0,r0
80004aee:	03 48       	ld.w	r8,--r1
80004af0:	00 00       	add	r0,r0
80004af2:	03 24       	ld.uh	r4,r1++

80004af4 <ui_process>:
80004af4:	5e fc       	retal	r12
80004af6:	d7 03       	nop

80004af8 <ui_stop_write>:
80004af8:	d4 01       	pushm	lr
80004afa:	30 1c       	mov	r12,1
80004afc:	fe b0 fc 62 	rcall	800043c0 <LED_Off>
80004b00:	30 2c       	mov	r12,2
80004b02:	fe b0 fc 5f 	rcall	800043c0 <LED_Off>
80004b06:	d8 02       	popm	pc

80004b08 <ui_stop_read>:
80004b08:	d4 01       	pushm	lr
80004b0a:	30 2c       	mov	r12,2
80004b0c:	fe b0 fc 5a 	rcall	800043c0 <LED_Off>
80004b10:	d8 02       	popm	pc
80004b12:	d7 03       	nop

80004b14 <ui_start_write>:
80004b14:	d4 01       	pushm	lr
80004b16:	30 1c       	mov	r12,1
80004b18:	fe b0 fc 2e 	rcall	80004374 <LED_On>
80004b1c:	30 2c       	mov	r12,2
80004b1e:	fe b0 fc 2b 	rcall	80004374 <LED_On>
80004b22:	d8 02       	popm	pc

80004b24 <ui_start_read>:
80004b24:	d4 01       	pushm	lr
80004b26:	30 2c       	mov	r12,2
80004b28:	fe b0 fc 26 	rcall	80004374 <LED_On>
80004b2c:	d8 02       	popm	pc
80004b2e:	d7 03       	nop

80004b30 <sd_mmc_spi_wr_protect>:
80004b30:	5e fd       	retal	0

80004b32 <sd_mmc_spi_removal>:
80004b32:	5e fd       	retal	0

80004b34 <sd_mmc_spi_write_multiple_sector_callback>:
80004b34:	d4 01       	pushm	lr
80004b36:	30 09       	mov	r9,0
80004b38:	18 9b       	mov	r11,r12
80004b3a:	e0 6a 02 00 	mov	r10,512
80004b3e:	12 9c       	mov	r12,r9
80004b40:	fe b0 fc 76 	rcall	8000442c <udi_msc_trans_block>
80004b44:	d8 02       	popm	pc
80004b46:	d7 03       	nop

80004b48 <sd_mmc_spi_read_multiple_sector_callback>:
80004b48:	d4 01       	pushm	lr
80004b4a:	30 09       	mov	r9,0
80004b4c:	18 9b       	mov	r11,r12
80004b4e:	e0 6a 02 00 	mov	r10,512
80004b52:	30 1c       	mov	r12,1
80004b54:	fe b0 fc 6c 	rcall	8000442c <udi_msc_trans_block>
80004b58:	d8 02       	popm	pc
80004b5a:	d7 03       	nop

80004b5c <sd_mmc_spi_test_unit_ready>:
80004b5c:	d4 21       	pushm	r4-r7,lr
80004b5e:	49 47       	lddpc	r7,80004bac <sd_mmc_spi_test_unit_ready+0x50>
80004b60:	30 16       	mov	r6,1
80004b62:	0f 88       	ld.ub	r8,r7[0x0]
80004b64:	ec 08 18 00 	cp.b	r8,r6
80004b68:	c0 f0       	breq	80004b86 <sd_mmc_spi_test_unit_ready+0x2a>
80004b6a:	c0 63       	brcs	80004b76 <sd_mmc_spi_test_unit_ready+0x1a>
80004b6c:	30 29       	mov	r9,2
80004b6e:	f2 08 18 00 	cp.b	r8,r9
80004b72:	c1 81       	brne	80004ba2 <sd_mmc_spi_test_unit_ready+0x46>
80004b74:	c1 38       	rjmp	80004b9a <sd_mmc_spi_test_unit_ready+0x3e>
80004b76:	30 09       	mov	r9,0
80004b78:	48 e8       	lddpc	r8,80004bb0 <sd_mmc_spi_test_unit_ready+0x54>
80004b7a:	b0 89       	st.b	r8[0x0],r9
80004b7c:	fe b0 ee f8 	rcall	8000296c <sd_mmc_spi_mem_check>
80004b80:	c0 f0       	breq	80004b9e <sd_mmc_spi_test_unit_ready+0x42>
80004b82:	ae 86       	st.b	r7[0x0],r6
80004b84:	c0 98       	rjmp	80004b96 <sd_mmc_spi_test_unit_ready+0x3a>
80004b86:	fe b0 ee f3 	rcall	8000296c <sd_mmc_spi_mem_check>
80004b8a:	c0 20       	breq	80004b8e <sd_mmc_spi_test_unit_ready+0x32>
80004b8c:	d8 2a       	popm	r4-r7,pc,r12=0
80004b8e:	30 28       	mov	r8,2
80004b90:	ae 88       	st.b	r7[0x0],r8
80004b92:	48 88       	lddpc	r8,80004bb0 <sd_mmc_spi_test_unit_ready+0x54>
80004b94:	b0 8c       	st.b	r8[0x0],r12
80004b96:	30 3c       	mov	r12,3
80004b98:	d8 22       	popm	r4-r7,pc
80004b9a:	30 08       	mov	r8,0
80004b9c:	ae 88       	st.b	r7[0x0],r8
80004b9e:	30 2c       	mov	r12,2
80004ba0:	d8 22       	popm	r4-r7,pc
80004ba2:	30 08       	mov	r8,0
80004ba4:	30 3c       	mov	r12,3
80004ba6:	ae 88       	st.b	r7[0x0],r8
80004ba8:	d8 22       	popm	r4-r7,pc
80004baa:	d7 03       	nop
80004bac:	00 00       	add	r0,r0
80004bae:	00 a0       	st.w	r0++,r0
80004bb0:	00 00       	add	r0,r0
80004bb2:	03 10       	ld.sh	r0,r1++

80004bb4 <sd_mmc_spi_mem_init>:
80004bb4:	d4 01       	pushm	lr
80004bb6:	fe b0 ed cf 	rcall	80002754 <sd_mmc_spi_internal_init>
80004bba:	d8 02       	popm	pc

80004bbc <sd_mmc_spi_ram_2_mem>:
80004bbc:	d4 21       	pushm	r4-r7,lr
80004bbe:	18 97       	mov	r7,r12
80004bc0:	16 96       	mov	r6,r11
80004bc2:	fe b0 eb a5 	rcall	8000230c <sd_mmc_spi_check_presence>
80004bc6:	48 e8       	lddpc	r8,80004bfc <sd_mmc_spi_ram_2_mem+0x40>
80004bc8:	11 89       	ld.ub	r9,r8[0x0]
80004bca:	30 08       	mov	r8,0
80004bcc:	f0 09 18 00 	cp.b	r9,r8
80004bd0:	c0 21       	brne	80004bd4 <sd_mmc_spi_ram_2_mem+0x18>
80004bd2:	cf 1f       	rcall	80004bb4 <sd_mmc_spi_mem_init>
80004bd4:	48 a8       	lddpc	r8,80004bfc <sd_mmc_spi_ram_2_mem+0x40>
80004bd6:	11 89       	ld.ub	r9,r8[0x0]
80004bd8:	30 08       	mov	r8,0
80004bda:	f0 09 18 00 	cp.b	r9,r8
80004bde:	c0 a0       	breq	80004bf2 <sd_mmc_spi_ram_2_mem+0x36>
80004be0:	0e 9c       	mov	r12,r7
80004be2:	fe b0 eb 17 	rcall	80002210 <sd_mmc_spi_write_open>
80004be6:	0c 9c       	mov	r12,r6
80004be8:	fe b0 eb c0 	rcall	80002368 <sd_mmc_spi_write_sector_from_ram>
80004bec:	c0 51       	brne	80004bf6 <sd_mmc_spi_ram_2_mem+0x3a>
80004bee:	fe b0 ea d5 	rcall	80002198 <sd_mmc_spi_write_close>
80004bf2:	30 2c       	mov	r12,2
80004bf4:	d8 22       	popm	r4-r7,pc
80004bf6:	fe b0 ea d1 	rcall	80002198 <sd_mmc_spi_write_close>
80004bfa:	d8 2a       	popm	r4-r7,pc,r12=0
80004bfc:	00 00       	add	r0,r0
80004bfe:	03 10       	ld.sh	r0,r1++

80004c00 <sd_mmc_spi_mem_2_ram>:
80004c00:	d4 21       	pushm	r4-r7,lr
80004c02:	18 97       	mov	r7,r12
80004c04:	16 96       	mov	r6,r11
80004c06:	fe b0 eb 83 	rcall	8000230c <sd_mmc_spi_check_presence>
80004c0a:	49 08       	lddpc	r8,80004c48 <sd_mmc_spi_mem_2_ram+0x48>
80004c0c:	11 89       	ld.ub	r9,r8[0x0]
80004c0e:	30 08       	mov	r8,0
80004c10:	f0 09 18 00 	cp.b	r9,r8
80004c14:	c0 21       	brne	80004c18 <sd_mmc_spi_mem_2_ram+0x18>
80004c16:	cc ff       	rcall	80004bb4 <sd_mmc_spi_mem_init>
80004c18:	48 c8       	lddpc	r8,80004c48 <sd_mmc_spi_mem_2_ram+0x48>
80004c1a:	11 89       	ld.ub	r9,r8[0x0]
80004c1c:	30 08       	mov	r8,0
80004c1e:	f0 09 18 00 	cp.b	r9,r8
80004c22:	c0 31       	brne	80004c28 <sd_mmc_spi_mem_2_ram+0x28>
80004c24:	30 2c       	mov	r12,2
80004c26:	d8 22       	popm	r4-r7,pc
80004c28:	0e 9c       	mov	r12,r7
80004c2a:	fe b0 ea ff 	rcall	80002228 <sd_mmc_spi_read_open>
80004c2e:	c0 b0       	breq	80004c44 <sd_mmc_spi_mem_2_ram+0x44>
80004c30:	0c 9c       	mov	r12,r6
80004c32:	fe b0 ec 87 	rcall	80002540 <sd_mmc_spi_read_sector_to_ram>
80004c36:	c0 70       	breq	80004c44 <sd_mmc_spi_mem_2_ram+0x44>
80004c38:	fe b0 ea f4 	rcall	80002220 <sd_mmc_spi_read_close>
80004c3c:	ec 1c 00 01 	eorl	r12,0x1
80004c40:	5c 5c       	castu.b	r12
80004c42:	d8 22       	popm	r4-r7,pc
80004c44:	da 2a       	popm	r4-r7,pc,r12=1
80004c46:	d7 03       	nop
80004c48:	00 00       	add	r0,r0
80004c4a:	03 10       	ld.sh	r0,r1++

80004c4c <sd_mmc_spi_usb_write_10>:
80004c4c:	d4 21       	pushm	r4-r7,lr
80004c4e:	20 1d       	sub	sp,4
80004c50:	49 08       	lddpc	r8,80004c90 <sd_mmc_spi_usb_write_10+0x44>
80004c52:	16 97       	mov	r7,r11
80004c54:	11 89       	ld.ub	r9,r8[0x0]
80004c56:	30 08       	mov	r8,0
80004c58:	f0 09 18 00 	cp.b	r9,r8
80004c5c:	c0 41       	brne	80004c64 <sd_mmc_spi_usb_write_10+0x18>
80004c5e:	50 0c       	stdsp	sp[0x0],r12
80004c60:	ca af       	rcall	80004bb4 <sd_mmc_spi_mem_init>
80004c62:	40 0c       	lddsp	r12,sp[0x0]
80004c64:	48 b8       	lddpc	r8,80004c90 <sd_mmc_spi_usb_write_10+0x44>
80004c66:	11 89       	ld.ub	r9,r8[0x0]
80004c68:	30 08       	mov	r8,0
80004c6a:	f0 09 18 00 	cp.b	r9,r8
80004c6e:	c0 e0       	breq	80004c8a <sd_mmc_spi_usb_write_10+0x3e>
80004c70:	fe b0 ea d0 	rcall	80002210 <sd_mmc_spi_write_open>
80004c74:	0e 9c       	mov	r12,r7
80004c76:	5c 7c       	castu.h	r12
80004c78:	fe b0 ed 4e 	rcall	80002714 <sd_mmc_spi_write_multiple_sector>
80004c7c:	18 97       	mov	r7,r12
80004c7e:	fe b0 ea 8d 	rcall	80002198 <sd_mmc_spi_write_close>
80004c82:	58 07       	cp.w	r7,0
80004c84:	c0 30       	breq	80004c8a <sd_mmc_spi_usb_write_10+0x3e>
80004c86:	30 0c       	mov	r12,0
80004c88:	c0 28       	rjmp	80004c8c <sd_mmc_spi_usb_write_10+0x40>
80004c8a:	30 2c       	mov	r12,2
80004c8c:	2f fd       	sub	sp,-4
80004c8e:	d8 22       	popm	r4-r7,pc
80004c90:	00 00       	add	r0,r0
80004c92:	03 10       	ld.sh	r0,r1++

80004c94 <sd_mmc_spi_usb_read_10>:
80004c94:	d4 21       	pushm	r4-r7,lr
80004c96:	20 1d       	sub	sp,4
80004c98:	49 28       	lddpc	r8,80004ce0 <sd_mmc_spi_usb_read_10+0x4c>
80004c9a:	16 97       	mov	r7,r11
80004c9c:	11 89       	ld.ub	r9,r8[0x0]
80004c9e:	30 08       	mov	r8,0
80004ca0:	f0 09 18 00 	cp.b	r9,r8
80004ca4:	c0 41       	brne	80004cac <sd_mmc_spi_usb_read_10+0x18>
80004ca6:	50 0c       	stdsp	sp[0x0],r12
80004ca8:	c8 6f       	rcall	80004bb4 <sd_mmc_spi_mem_init>
80004caa:	40 0c       	lddsp	r12,sp[0x0]
80004cac:	48 d8       	lddpc	r8,80004ce0 <sd_mmc_spi_usb_read_10+0x4c>
80004cae:	11 89       	ld.ub	r9,r8[0x0]
80004cb0:	30 08       	mov	r8,0
80004cb2:	f0 09 18 00 	cp.b	r9,r8
80004cb6:	c0 31       	brne	80004cbc <sd_mmc_spi_usb_read_10+0x28>
80004cb8:	30 2c       	mov	r12,2
80004cba:	c1 08       	rjmp	80004cda <sd_mmc_spi_usb_read_10+0x46>
80004cbc:	fe b0 ea b6 	rcall	80002228 <sd_mmc_spi_read_open>
80004cc0:	c0 c0       	breq	80004cd8 <sd_mmc_spi_usb_read_10+0x44>
80004cc2:	0e 9c       	mov	r12,r7
80004cc4:	5c 7c       	castu.h	r12
80004cc6:	fe b0 ed 37 	rcall	80002734 <sd_mmc_spi_read_multiple_sector>
80004cca:	c0 70       	breq	80004cd8 <sd_mmc_spi_usb_read_10+0x44>
80004ccc:	fe b0 ea aa 	rcall	80002220 <sd_mmc_spi_read_close>
80004cd0:	ec 1c 00 01 	eorl	r12,0x1
80004cd4:	5c 5c       	castu.b	r12
80004cd6:	c0 28       	rjmp	80004cda <sd_mmc_spi_usb_read_10+0x46>
80004cd8:	30 1c       	mov	r12,1
80004cda:	2f fd       	sub	sp,-4
80004cdc:	d8 22       	popm	r4-r7,pc
80004cde:	d7 03       	nop
80004ce0:	00 00       	add	r0,r0
80004ce2:	03 10       	ld.sh	r0,r1++

80004ce4 <sd_mmc_spi_read_capacity>:
80004ce4:	d4 21       	pushm	r4-r7,lr
80004ce6:	48 c8       	lddpc	r8,80004d14 <sd_mmc_spi_read_capacity+0x30>
80004ce8:	18 97       	mov	r7,r12
80004cea:	11 89       	ld.ub	r9,r8[0x0]
80004cec:	30 08       	mov	r8,0
80004cee:	f0 09 18 00 	cp.b	r9,r8
80004cf2:	c0 21       	brne	80004cf6 <sd_mmc_spi_read_capacity+0x12>
80004cf4:	c6 0f       	rcall	80004bb4 <sd_mmc_spi_mem_init>
80004cf6:	48 88       	lddpc	r8,80004d14 <sd_mmc_spi_read_capacity+0x30>
80004cf8:	11 89       	ld.ub	r9,r8[0x0]
80004cfa:	30 08       	mov	r8,0
80004cfc:	f0 09 18 00 	cp.b	r9,r8
80004d00:	c0 31       	brne	80004d06 <sd_mmc_spi_read_capacity+0x22>
80004d02:	30 2c       	mov	r12,2
80004d04:	d8 22       	popm	r4-r7,pc
80004d06:	48 58       	lddpc	r8,80004d18 <sd_mmc_spi_read_capacity+0x34>
80004d08:	30 0c       	mov	r12,0
80004d0a:	70 08       	ld.w	r8,r8[0x0]
80004d0c:	2f f8       	sub	r8,-1
80004d0e:	8f 08       	st.w	r7[0x0],r8
80004d10:	d8 22       	popm	r4-r7,pc
80004d12:	d7 03       	nop
80004d14:	00 00       	add	r0,r0
80004d16:	03 10       	ld.sh	r0,r1++
80004d18:	00 00       	add	r0,r0
80004d1a:	06 88       	andn	r8,r3

80004d1c <flashc_set_bus_freq>:
80004d1c:	e0 68 8a 3f 	mov	r8,35391
80004d20:	ea 18 01 f7 	orh	r8,0x1f7
80004d24:	10 3c       	cp.w	r12,r8
80004d26:	e0 88 00 07 	brls	80004d34 <flashc_set_bus_freq+0x18>
80004d2a:	fe 68 14 00 	mov	r8,-125952
80004d2e:	30 1a       	mov	r10,1
80004d30:	70 09       	ld.w	r9,r8[0x0]
80004d32:	c0 58       	rjmp	80004d3c <flashc_set_bus_freq+0x20>
80004d34:	fe 68 14 00 	mov	r8,-125952
80004d38:	30 0a       	mov	r10,0
80004d3a:	70 09       	ld.w	r9,r8[0x0]
80004d3c:	f3 da d0 c1 	bfins	r9,r10,0x6,0x1
80004d40:	91 09       	st.w	r8[0x0],r9
80004d42:	5e fc       	retal	r12

80004d44 <gpio_enable_module_pin>:
80004d44:	f8 08 16 05 	lsr	r8,r12,0x5
80004d48:	a9 68       	lsl	r8,0x8
80004d4a:	e0 28 f0 00 	sub	r8,61440
80004d4e:	58 1b       	cp.w	r11,1
80004d50:	c0 d0       	breq	80004d6a <gpio_enable_module_pin+0x26>
80004d52:	c0 63       	brcs	80004d5e <gpio_enable_module_pin+0x1a>
80004d54:	58 2b       	cp.w	r11,2
80004d56:	c0 f0       	breq	80004d74 <gpio_enable_module_pin+0x30>
80004d58:	58 3b       	cp.w	r11,3
80004d5a:	c1 20       	breq	80004d7e <gpio_enable_module_pin+0x3a>
80004d5c:	5e ff       	retal	1
80004d5e:	30 19       	mov	r9,1
80004d60:	f2 0c 09 49 	lsl	r9,r9,r12
80004d64:	91 69       	st.w	r8[0x18],r9
80004d66:	91 a9       	st.w	r8[0x28],r9
80004d68:	c1 08       	rjmp	80004d88 <gpio_enable_module_pin+0x44>
80004d6a:	f6 0c 09 4b 	lsl	r11,r11,r12
80004d6e:	91 5b       	st.w	r8[0x14],r11
80004d70:	91 ab       	st.w	r8[0x28],r11
80004d72:	c0 b8       	rjmp	80004d88 <gpio_enable_module_pin+0x44>
80004d74:	30 19       	mov	r9,1
80004d76:	f2 0c 09 49 	lsl	r9,r9,r12
80004d7a:	91 69       	st.w	r8[0x18],r9
80004d7c:	c0 58       	rjmp	80004d86 <gpio_enable_module_pin+0x42>
80004d7e:	30 19       	mov	r9,1
80004d80:	f2 0c 09 49 	lsl	r9,r9,r12
80004d84:	91 59       	st.w	r8[0x14],r9
80004d86:	91 99       	st.w	r8[0x24],r9
80004d88:	30 19       	mov	r9,1
80004d8a:	f2 0c 09 4c 	lsl	r12,r9,r12
80004d8e:	91 2c       	st.w	r8[0x8],r12
80004d90:	5e fd       	retal	0
80004d92:	d7 03       	nop

80004d94 <gpio_enable_module>:
80004d94:	d4 21       	pushm	r4-r7,lr
80004d96:	30 07       	mov	r7,0
80004d98:	18 96       	mov	r6,r12
80004d9a:	16 94       	mov	r4,r11
80004d9c:	0e 95       	mov	r5,r7
80004d9e:	c0 78       	rjmp	80004dac <gpio_enable_module+0x18>
80004da0:	0d 9b       	ld.ub	r11,r6[0x1]
80004da2:	0d 8c       	ld.ub	r12,r6[0x0]
80004da4:	2f f7       	sub	r7,-1
80004da6:	2f e6       	sub	r6,-2
80004da8:	cc ef       	rcall	80004d44 <gpio_enable_module_pin>
80004daa:	18 45       	or	r5,r12
80004dac:	08 37       	cp.w	r7,r4
80004dae:	cf 93       	brcs	80004da0 <gpio_enable_module+0xc>
80004db0:	0a 9c       	mov	r12,r5
80004db2:	d8 22       	popm	r4-r7,pc

80004db4 <gpio_configure_pin>:
80004db4:	f8 08 16 05 	lsr	r8,r12,0x5
80004db8:	16 9a       	mov	r10,r11
80004dba:	a9 68       	lsl	r8,0x8
80004dbc:	e2 1a 00 04 	andl	r10,0x4,COH
80004dc0:	e0 28 f0 00 	sub	r8,61440
80004dc4:	f3 dc c0 05 	bfextu	r9,r12,0x0,0x5
80004dc8:	58 0a       	cp.w	r10,0
80004dca:	c0 70       	breq	80004dd8 <gpio_configure_pin+0x24>
80004dcc:	30 1a       	mov	r10,1
80004dce:	f4 09 09 49 	lsl	r9,r10,r9
80004dd2:	f1 49 00 74 	st.w	r8[116],r9
80004dd6:	c0 68       	rjmp	80004de2 <gpio_configure_pin+0x2e>
80004dd8:	30 1a       	mov	r10,1
80004dda:	f4 09 09 49 	lsl	r9,r10,r9
80004dde:	f1 49 00 78 	st.w	r8[120],r9
80004de2:	ed bb 00 07 	bld	r11,0x7
80004de6:	c2 21       	brne	80004e2a <gpio_configure_pin+0x76>
80004de8:	16 99       	mov	r9,r11
80004dea:	e2 19 01 80 	andl	r9,0x180,COH
80004dee:	c0 70       	breq	80004dfc <gpio_configure_pin+0x48>
80004df0:	30 19       	mov	r9,1
80004df2:	f2 0c 09 49 	lsl	r9,r9,r12
80004df6:	f1 49 00 a8 	st.w	r8[168],r9
80004dfa:	c0 a8       	rjmp	80004e0e <gpio_configure_pin+0x5a>
80004dfc:	16 99       	mov	r9,r11
80004dfe:	e2 19 02 80 	andl	r9,0x280,COH
80004e02:	c0 90       	breq	80004e14 <gpio_configure_pin+0x60>
80004e04:	30 19       	mov	r9,1
80004e06:	f2 0c 09 49 	lsl	r9,r9,r12
80004e0a:	f1 49 00 a4 	st.w	r8[164],r9
80004e0e:	f1 49 00 b8 	st.w	r8[184],r9
80004e12:	c0 c8       	rjmp	80004e2a <gpio_configure_pin+0x76>
80004e14:	16 99       	mov	r9,r11
80004e16:	e2 19 03 80 	andl	r9,0x380,COH
80004e1a:	c0 80       	breq	80004e2a <gpio_configure_pin+0x76>
80004e1c:	30 19       	mov	r9,1
80004e1e:	f2 0c 09 49 	lsl	r9,r9,r12
80004e22:	f1 49 00 a8 	st.w	r8[168],r9
80004e26:	f1 49 00 b4 	st.w	r8[180],r9
80004e2a:	ed bb 00 00 	bld	r11,0x0
80004e2e:	c1 81       	brne	80004e5e <gpio_configure_pin+0xaa>
80004e30:	e2 1b 00 02 	andl	r11,0x2,COH
80004e34:	f3 dc c0 05 	bfextu	r9,r12,0x0,0x5
80004e38:	58 0b       	cp.w	r11,0
80004e3a:	c0 70       	breq	80004e48 <gpio_configure_pin+0x94>
80004e3c:	30 1a       	mov	r10,1
80004e3e:	f4 09 09 49 	lsl	r9,r10,r9
80004e42:	f1 49 00 54 	st.w	r8[84],r9
80004e46:	c0 68       	rjmp	80004e52 <gpio_configure_pin+0x9e>
80004e48:	30 1a       	mov	r10,1
80004e4a:	f4 09 09 49 	lsl	r9,r10,r9
80004e4e:	f1 49 00 58 	st.w	r8[88],r9
80004e52:	30 19       	mov	r9,1
80004e54:	f2 0c 09 49 	lsl	r9,r9,r12
80004e58:	f1 49 00 44 	st.w	r8[68],r9
80004e5c:	c0 68       	rjmp	80004e68 <gpio_configure_pin+0xb4>
80004e5e:	30 19       	mov	r9,1
80004e60:	f2 0c 09 49 	lsl	r9,r9,r12
80004e64:	f1 49 00 48 	st.w	r8[72],r9
80004e68:	30 19       	mov	r9,1
80004e6a:	f2 0c 09 4c 	lsl	r12,r9,r12
80004e6e:	91 1c       	st.w	r8[0x4],r12
80004e70:	5e fc       	retal	r12

80004e72 <_unhandled_interrupt>:
80004e72:	c0 08       	rjmp	80004e72 <_unhandled_interrupt>

80004e74 <INTC_register_interrupt>:
80004e74:	f3 db c0 05 	bfextu	r9,r11,0x0,0x5
80004e78:	49 a8       	lddpc	r8,80004ee0 <INTC_register_interrupt+0x6c>
80004e7a:	a5 9b       	lsr	r11,0x5
80004e7c:	f0 0b 00 38 	add	r8,r8,r11<<0x3
80004e80:	70 18       	ld.w	r8,r8[0x4]
80004e82:	f0 09 09 2c 	st.w	r8[r9<<0x2],r12
80004e86:	58 0a       	cp.w	r10,0
80004e88:	c0 c1       	brne	80004ea0 <INTC_register_interrupt+0x2c>
80004e8a:	fe 78 08 00 	mov	r8,-63488
80004e8e:	fe c9 e2 8e 	sub	r9,pc,-7538
80004e92:	fe ca e1 8e 	sub	r10,pc,-7794
80004e96:	f4 09 01 09 	sub	r9,r10,r9
80004e9a:	f0 0b 09 29 	st.w	r8[r11<<0x2],r9
80004e9e:	5e fc       	retal	r12
80004ea0:	58 1a       	cp.w	r10,1
80004ea2:	c0 91       	brne	80004eb4 <INTC_register_interrupt+0x40>
80004ea4:	fe c8 e2 a4 	sub	r8,pc,-7516
80004ea8:	fe c9 e1 96 	sub	r9,pc,-7786
80004eac:	f2 08 01 08 	sub	r8,r9,r8
80004eb0:	bf a8       	sbr	r8,0x1e
80004eb2:	c1 18       	rjmp	80004ed4 <INTC_register_interrupt+0x60>
80004eb4:	fe c8 e2 b4 	sub	r8,pc,-7500
80004eb8:	58 2a       	cp.w	r10,2
80004eba:	c0 71       	brne	80004ec8 <INTC_register_interrupt+0x54>
80004ebc:	fe c9 e1 9c 	sub	r9,pc,-7780
80004ec0:	f2 08 01 08 	sub	r8,r9,r8
80004ec4:	bf b8       	sbr	r8,0x1f
80004ec6:	c0 78       	rjmp	80004ed4 <INTC_register_interrupt+0x60>
80004ec8:	fe c9 e1 9a 	sub	r9,pc,-7782
80004ecc:	f2 08 01 08 	sub	r8,r9,r8
80004ed0:	ea 18 c0 00 	orh	r8,0xc000
80004ed4:	fe 79 08 00 	mov	r9,-63488
80004ed8:	f2 0b 09 28 	st.w	r9[r11<<0x2],r8
80004edc:	5e fc       	retal	r12
80004ede:	d7 03       	nop
80004ee0:	80 00       	ld.sh	r0,r0[0x0]
80004ee2:	6e 58       	ld.w	r8,r7[0x14]

80004ee4 <INTC_init_interrupts>:
80004ee4:	d4 21       	pushm	r4-r7,lr
80004ee6:	fe c8 e2 e6 	sub	r8,pc,-7450
80004eea:	e3 b8 00 01 	mtsr	0x4,r8
80004eee:	fe ce e1 ea 	sub	lr,pc,-7702
80004ef2:	48 d9       	lddpc	r9,80004f24 <INTC_init_interrupts+0x40>
80004ef4:	10 1e       	sub	lr,r8
80004ef6:	fe cc 00 84 	sub	r12,pc,132
80004efa:	30 08       	mov	r8,0
80004efc:	fe 7b 08 00 	mov	r11,-63488
80004f00:	c0 e8       	rjmp	80004f1c <INTC_init_interrupts+0x38>
80004f02:	72 16       	ld.w	r6,r9[0x4]
80004f04:	ec 0a 00 26 	add	r6,r6,r10<<0x2
80004f08:	2f fa       	sub	r10,-1
80004f0a:	8d 0c       	st.w	r6[0x0],r12
80004f0c:	0e 3a       	cp.w	r10,r7
80004f0e:	cf a3       	brcs	80004f02 <INTC_init_interrupts+0x1e>
80004f10:	f6 08 09 2e 	st.w	r11[r8<<0x2],lr
80004f14:	2f 89       	sub	r9,-8
80004f16:	2f f8       	sub	r8,-1
80004f18:	59 28       	cp.w	r8,18
80004f1a:	c0 40       	breq	80004f22 <INTC_init_interrupts+0x3e>
80004f1c:	72 07       	ld.w	r7,r9[0x0]
80004f1e:	30 0a       	mov	r10,0
80004f20:	cf 6b       	rjmp	80004f0c <INTC_init_interrupts+0x28>
80004f22:	d8 22       	popm	r4-r7,pc
80004f24:	80 00       	ld.sh	r0,r0[0x0]
80004f26:	6e 58       	ld.w	r8,r7[0x14]

80004f28 <_get_interrupt_handler>:
80004f28:	e0 68 00 83 	mov	r8,131
80004f2c:	fe 79 08 00 	mov	r9,-63488
80004f30:	f0 0c 01 0c 	sub	r12,r8,r12
80004f34:	f2 0c 03 28 	ld.w	r8,r9[r12<<0x2]
80004f38:	f0 ca ff c0 	sub	r10,r8,-64
80004f3c:	f2 0a 03 2c 	ld.w	r12,r9[r10<<0x2]
80004f40:	58 0c       	cp.w	r12,0
80004f42:	5e 0c       	reteq	r12
80004f44:	48 69       	lddpc	r9,80004f5c <_get_interrupt_handler+0x34>
80004f46:	f8 0c 12 00 	clz	r12,r12
80004f4a:	f2 08 00 38 	add	r8,r9,r8<<0x3
80004f4e:	f8 0c 11 1f 	rsub	r12,r12,31
80004f52:	70 18       	ld.w	r8,r8[0x4]
80004f54:	f0 0c 03 2c 	ld.w	r12,r8[r12<<0x2]
80004f58:	5e fc       	retal	r12
80004f5a:	d7 03       	nop
80004f5c:	80 00       	ld.sh	r0,r0[0x0]
80004f5e:	6e 58       	ld.w	r8,r7[0x14]

80004f60 <getBaudDiv>:
80004f60:	f8 c9 00 01 	sub	r9,r12,1
80004f64:	f8 08 16 01 	lsr	r8,r12,0x1
80004f68:	f2 08 00 08 	add	r8,r9,r8
80004f6c:	f0 0b 00 0b 	add	r11,r8,r11
80004f70:	f6 0c 0d 0a 	divu	r10,r11,r12
80004f74:	14 9c       	mov	r12,r10
80004f76:	f4 c8 00 01 	sub	r8,r10,1
80004f7a:	e0 48 00 fe 	cp.w	r8,254
80004f7e:	e0 88 00 03 	brls	80004f84 <getBaudDiv+0x24>
80004f82:	5e fe       	retal	-1
80004f84:	5c 8c       	casts.h	r12
80004f86:	5e fc       	retal	r12

80004f88 <spi_initMaster>:
80004f88:	d4 01       	pushm	lr
80004f8a:	30 19       	mov	r9,1
80004f8c:	18 98       	mov	r8,r12
80004f8e:	f7 3b 00 0d 	ld.ub	r11,r11[13]
80004f92:	f2 0b 18 00 	cp.b	r11,r9
80004f96:	e0 88 00 04 	brls	80004f9e <spi_initMaster+0x16>
80004f9a:	30 2c       	mov	r12,2
80004f9c:	d8 02       	popm	pc
80004f9e:	30 0a       	mov	r10,0
80004fa0:	e0 69 00 80 	mov	r9,128
80004fa4:	99 09       	st.w	r12[0x0],r9
80004fa6:	30 1e       	mov	lr,1
80004fa8:	70 19       	ld.w	r9,r8[0x4]
80004faa:	14 9c       	mov	r12,r10
80004fac:	f3 de d0 01 	bfins	r9,lr,0x0,0x1
80004fb0:	f3 db d0 81 	bfins	r9,r11,0x4,0x1
80004fb4:	f3 da d0 e1 	bfins	r9,r10,0x7,0x1
80004fb8:	30 fa       	mov	r10,15
80004fba:	f3 da d2 04 	bfins	r9,r10,0x10,0x4
80004fbe:	91 19       	st.w	r8[0x4],r9
80004fc0:	d8 02       	popm	pc

80004fc2 <spi_selectionMode>:
80004fc2:	d4 01       	pushm	lr
80004fc4:	30 18       	mov	r8,1
80004fc6:	f0 0b 18 00 	cp.b	r11,r8
80004fca:	5f be       	srhi	lr
80004fcc:	f0 0a 18 00 	cp.b	r10,r8
80004fd0:	5f b8       	srhi	r8
80004fd2:	1c 48       	or	r8,lr
80004fd4:	c0 30       	breq	80004fda <spi_selectionMode+0x18>
80004fd6:	30 2c       	mov	r12,2
80004fd8:	d8 02       	popm	pc
80004fda:	78 18       	ld.w	r8,r12[0x4]
80004fdc:	f1 db d0 21 	bfins	r8,r11,0x1,0x1
80004fe0:	f1 da d0 41 	bfins	r8,r10,0x2,0x1
80004fe4:	f1 d9 d3 08 	bfins	r8,r9,0x18,0x8
80004fe8:	99 18       	st.w	r12[0x4],r8
80004fea:	d8 0a       	popm	pc,r12=0

80004fec <spi_selectChip>:
80004fec:	78 19       	ld.w	r9,r12[0x4]
80004fee:	18 98       	mov	r8,r12
80004ff0:	ea 19 00 0f 	orh	r9,0xf
80004ff4:	99 19       	st.w	r12[0x4],r9
80004ff6:	78 1c       	ld.w	r12,r12[0x4]
80004ff8:	e2 1c 00 04 	andl	r12,0x4,COH
80004ffc:	c1 00       	breq	8000501c <spi_selectChip+0x30>
80004ffe:	30 e9       	mov	r9,14
80005000:	f2 0b 18 00 	cp.b	r11,r9
80005004:	e0 8b 00 1a 	brhi	80005038 <spi_selectChip+0x4c>
80005008:	70 19       	ld.w	r9,r8[0x4]
8000500a:	b1 6b       	lsl	r11,0x10
8000500c:	30 0c       	mov	r12,0
8000500e:	ea 1b ff f0 	orh	r11,0xfff0
80005012:	e8 1b ff ff 	orl	r11,0xffff
80005016:	12 6b       	and	r11,r9
80005018:	91 1b       	st.w	r8[0x4],r11
8000501a:	5e fc       	retal	r12
8000501c:	30 39       	mov	r9,3
8000501e:	f2 0b 18 00 	cp.b	r11,r9
80005022:	e0 8b 00 0b 	brhi	80005038 <spi_selectChip+0x4c>
80005026:	70 19       	ld.w	r9,r8[0x4]
80005028:	2f 0b       	sub	r11,-16
8000502a:	30 1a       	mov	r10,1
8000502c:	f4 0b 09 4b 	lsl	r11,r10,r11
80005030:	5c db       	com	r11
80005032:	12 6b       	and	r11,r9
80005034:	91 1b       	st.w	r8[0x4],r11
80005036:	5e fc       	retal	r12
80005038:	30 2c       	mov	r12,2
8000503a:	5e fc       	retal	r12

8000503c <spi_unselectChip>:
8000503c:	e0 68 3a 98 	mov	r8,15000
80005040:	c0 58       	rjmp	8000504a <spi_unselectChip+0xe>
80005042:	58 08       	cp.w	r8,0
80005044:	c0 21       	brne	80005048 <spi_unselectChip+0xc>
80005046:	5e ff       	retal	1
80005048:	20 18       	sub	r8,1
8000504a:	78 49       	ld.w	r9,r12[0x10]
8000504c:	ed b9 00 09 	bld	r9,0x9
80005050:	cf 91       	brne	80005042 <spi_unselectChip+0x6>
80005052:	78 18       	ld.w	r8,r12[0x4]
80005054:	ea 18 00 0f 	orh	r8,0xf
80005058:	99 18       	st.w	r12[0x4],r8
8000505a:	30 08       	mov	r8,0
8000505c:	ea 18 01 00 	orh	r8,0x100
80005060:	99 08       	st.w	r12[0x0],r8
80005062:	5e fd       	retal	0

80005064 <spi_setupChipReg>:
80005064:	d4 31       	pushm	r0-r7,lr
80005066:	30 32       	mov	r2,3
80005068:	16 97       	mov	r7,r11
8000506a:	18 96       	mov	r6,r12
8000506c:	f7 34 00 0c 	ld.ub	r4,r11[12]
80005070:	e4 04 18 00 	cp.b	r4,r2
80005074:	e0 8b 00 46 	brhi	80005100 <spi_setupChipReg+0x9c>
80005078:	f7 31 00 0b 	ld.ub	r1,r11[11]
8000507c:	30 15       	mov	r5,1
8000507e:	ea 01 18 00 	cp.b	r1,r5
80005082:	e0 8b 00 3f 	brhi	80005100 <spi_setupChipReg+0x9c>
80005086:	f7 33 00 08 	ld.ub	r3,r11[8]
8000508a:	30 78       	mov	r8,7
8000508c:	f0 03 18 00 	cp.b	r3,r8
80005090:	e0 88 00 38 	brls	80005100 <spi_setupChipReg+0x9c>
80005094:	31 08       	mov	r8,16
80005096:	f0 03 18 00 	cp.b	r3,r8
8000509a:	e0 8b 00 33 	brhi	80005100 <spi_setupChipReg+0x9c>
8000509e:	14 9b       	mov	r11,r10
800050a0:	6e 1c       	ld.w	r12,r7[0x4]
800050a2:	c5 ff       	rcall	80004f60 <getBaudDiv>
800050a4:	c2 e5       	brlt	80005100 <spi_setupChipReg+0x9c>
800050a6:	08 9a       	mov	r10,r4
800050a8:	ec 1a 00 01 	eorl	r10,0x1
800050ac:	30 08       	mov	r8,0
800050ae:	a1 94       	lsr	r4,0x1
800050b0:	f1 d4 d0 01 	bfins	r8,r4,0x0,0x1
800050b4:	f1 da d0 21 	bfins	r8,r10,0x1,0x1
800050b8:	ef 3a 00 09 	ld.ub	r10,r7[9]
800050bc:	20 83       	sub	r3,8
800050be:	f1 d1 d0 61 	bfins	r8,r1,0x3,0x1
800050c2:	0f 89       	ld.ub	r9,r7[0x0]
800050c4:	f1 d3 d0 84 	bfins	r8,r3,0x4,0x4
800050c8:	f1 dc d1 08 	bfins	r8,r12,0x8,0x8
800050cc:	f1 da d2 08 	bfins	r8,r10,0x10,0x8
800050d0:	ef 3a 00 0a 	ld.ub	r10,r7[10]
800050d4:	f1 da d3 08 	bfins	r8,r10,0x18,0x8
800050d8:	ea 09 18 00 	cp.b	r9,r5
800050dc:	c0 c0       	breq	800050f4 <spi_setupChipReg+0x90>
800050de:	c0 93       	brcs	800050f0 <spi_setupChipReg+0x8c>
800050e0:	30 2a       	mov	r10,2
800050e2:	f4 09 18 00 	cp.b	r9,r10
800050e6:	c0 90       	breq	800050f8 <spi_setupChipReg+0x94>
800050e8:	e4 09 18 00 	cp.b	r9,r2
800050ec:	c0 a1       	brne	80005100 <spi_setupChipReg+0x9c>
800050ee:	c0 78       	rjmp	800050fc <spi_setupChipReg+0x98>
800050f0:	8d c8       	st.w	r6[0x30],r8
800050f2:	c0 68       	rjmp	800050fe <spi_setupChipReg+0x9a>
800050f4:	8d d8       	st.w	r6[0x34],r8
800050f6:	c0 48       	rjmp	800050fe <spi_setupChipReg+0x9a>
800050f8:	8d e8       	st.w	r6[0x38],r8
800050fa:	c0 28       	rjmp	800050fe <spi_setupChipReg+0x9a>
800050fc:	8d f8       	st.w	r6[0x3c],r8
800050fe:	d8 3a       	popm	r0-r7,pc,r12=0
80005100:	30 2c       	mov	r12,2
80005102:	d8 32       	popm	r0-r7,pc

80005104 <spi_enable>:
80005104:	30 18       	mov	r8,1
80005106:	99 08       	st.w	r12[0x0],r8
80005108:	5e fc       	retal	r12

8000510a <spi_is_enabled>:
8000510a:	78 4c       	ld.w	r12,r12[0x10]
8000510c:	f9 dc c2 01 	bfextu	r12,r12,0x10,0x1
80005110:	5e fc       	retal	r12

80005112 <spi_write>:
80005112:	e0 68 3a 98 	mov	r8,15000
80005116:	c0 58       	rjmp	80005120 <spi_write+0xe>
80005118:	58 08       	cp.w	r8,0
8000511a:	c0 21       	brne	8000511e <spi_write+0xc>
8000511c:	5e ff       	retal	1
8000511e:	20 18       	sub	r8,1
80005120:	78 49       	ld.w	r9,r12[0x10]
80005122:	ed b9 00 01 	bld	r9,0x1
80005126:	cf 91       	brne	80005118 <spi_write+0x6>
80005128:	5c 7b       	castu.h	r11
8000512a:	99 3b       	st.w	r12[0xc],r11
8000512c:	5e fd       	retal	0

8000512e <spi_read>:
8000512e:	e0 68 3a 98 	mov	r8,15000
80005132:	c0 58       	rjmp	8000513c <spi_read+0xe>
80005134:	58 08       	cp.w	r8,0
80005136:	c0 21       	brne	8000513a <spi_read+0xc>
80005138:	5e ff       	retal	1
8000513a:	20 18       	sub	r8,1
8000513c:	78 49       	ld.w	r9,r12[0x10]
8000513e:	e2 19 02 01 	andl	r9,0x201,COH
80005142:	e0 49 02 01 	cp.w	r9,513
80005146:	cf 71       	brne	80005134 <spi_read+0x6>
80005148:	78 28       	ld.w	r8,r12[0x8]
8000514a:	30 0c       	mov	r12,0
8000514c:	b6 08       	st.h	r11[0x0],r8
8000514e:	5e fc       	retal	r12

80005150 <udd_include_vbus_monitoring>:
80005150:	5e ff       	retal	1

80005152 <udd_set_address>:
80005152:	fe 68 00 00 	mov	r8,-131072
80005156:	70 09       	ld.w	r9,r8[0x0]
80005158:	a7 d9       	cbr	r9,0x7
8000515a:	91 09       	st.w	r8[0x0],r9
8000515c:	f9 dc c0 07 	bfextu	r12,r12,0x0,0x7
80005160:	70 09       	ld.w	r9,r8[0x0]
80005162:	e0 19 ff 80 	andl	r9,0xff80
80005166:	f9 e9 10 09 	or	r9,r12,r9
8000516a:	91 09       	st.w	r8[0x0],r9
8000516c:	70 09       	ld.w	r9,r8[0x0]
8000516e:	a7 b9       	sbr	r9,0x7
80005170:	91 09       	st.w	r8[0x0],r9
80005172:	5e fc       	retal	r12

80005174 <udd_getaddress>:
80005174:	fe 68 00 00 	mov	r8,-131072
80005178:	70 0c       	ld.w	r12,r8[0x0]
8000517a:	f9 dc c0 07 	bfextu	r12,r12,0x0,0x7
8000517e:	5e fc       	retal	r12

80005180 <udd_get_frame_number>:
80005180:	fe 68 00 20 	mov	r8,-131040
80005184:	70 0c       	ld.w	r12,r8[0x0]
80005186:	f9 dc c0 6b 	bfextu	r12,r12,0x3,0xb
8000518a:	5e fc       	retal	r12

8000518c <udd_set_setup_payload>:
8000518c:	48 28       	lddpc	r8,80005194 <udd_set_setup_payload+0x8>
8000518e:	b0 6b       	st.h	r8[0xc],r11
80005190:	91 2c       	st.w	r8[0x8],r12
80005192:	5e fc       	retal	r12
80005194:	00 00       	add	r0,r0
80005196:	09 94       	ld.ub	r4,r4[0x1]

80005198 <udd_ep_is_halted>:
80005198:	f9 dc c0 04 	bfextu	r12,r12,0x0,0x4
8000519c:	a3 6c       	lsl	r12,0x2
8000519e:	e0 3c fe 40 	sub	r12,130624
800051a2:	78 0c       	ld.w	r12,r12[0x0]
800051a4:	f9 dc c2 61 	bfextu	r12,r12,0x13,0x1
800051a8:	5e fc       	retal	r12
800051aa:	d7 03       	nop

800051ac <udd_ep_set_halt>:
800051ac:	d4 21       	pushm	r4-r7,lr
800051ae:	30 29       	mov	r9,2
800051b0:	f1 dc c0 04 	bfextu	r8,r12,0x0,0x4
800051b4:	f2 08 18 00 	cp.b	r8,r9
800051b8:	e0 8b 00 36 	brhi	80005224 <udd_ep_set_halt+0x78>
800051bc:	f0 cb 00 01 	sub	r11,r8,1
800051c0:	49 a9       	lddpc	r9,80005228 <udd_ep_set_halt+0x7c>
800051c2:	f6 0b 00 2b 	add	r11,r11,r11<<0x2
800051c6:	f2 0b 00 2b 	add	r11,r9,r11<<0x2
800051ca:	76 0c       	ld.w	r12,r11[0x0]
800051cc:	58 0c       	cp.w	r12,0
800051ce:	c2 b5       	brlt	80005224 <udd_ep_set_halt+0x78>
800051d0:	fe 6e 01 30 	mov	lr,-130768
800051d4:	f0 0a 15 02 	lsl	r10,r8,0x2
800051d8:	f4 0e 00 09 	add	r9,r10,lr
800051dc:	72 0e       	ld.w	lr,r9[0x0]
800051de:	fe 67 01 f0 	mov	r7,-130576
800051e2:	fd de c1 82 	bfextu	lr,lr,0xc,0x2
800051e6:	f4 07 00 09 	add	r9,r10,r7
800051ea:	58 0e       	cp.w	lr,0
800051ec:	c0 f0       	breq	8000520a <udd_ep_set_halt+0x5e>
800051ee:	18 9a       	mov	r10,r12
800051f0:	30 1c       	mov	r12,1
800051f2:	f5 dc d3 a1 	bfins	r10,r12,0x1d,0x1
800051f6:	97 0a       	st.w	r11[0x0],r10
800051f8:	e0 6a 10 00 	mov	r10,4096
800051fc:	93 0a       	st.w	r9[0x0],r10
800051fe:	f4 08 09 48 	lsl	r8,r10,r8
80005202:	fe 69 00 00 	mov	r9,-131072
80005206:	93 68       	st.w	r9[0x18],r8
80005208:	d8 22       	popm	r4-r7,pc
8000520a:	e0 3a ff 00 	sub	r10,130816
8000520e:	74 08       	ld.w	r8,r10[0x0]
80005210:	a9 d8       	cbr	r8,0x9
80005212:	95 08       	st.w	r10[0x0],r8
80005214:	e8 68 00 00 	mov	r8,524288
80005218:	93 08       	st.w	r9[0x0],r8
8000521a:	30 1c       	mov	r12,1
8000521c:	e4 68 00 00 	mov	r8,262144
80005220:	93 08       	st.w	r9[0x0],r8
80005222:	d8 22       	popm	r4-r7,pc
80005224:	d8 2a       	popm	r4-r7,pc,r12=0
80005226:	d7 03       	nop
80005228:	00 00       	add	r0,r0
8000522a:	04 20       	rsub	r0,r2

8000522c <udd_ep_clear_halt>:
8000522c:	d4 01       	pushm	lr
8000522e:	30 28       	mov	r8,2
80005230:	f9 dc c0 04 	bfextu	r12,r12,0x0,0x4
80005234:	f0 0c 18 00 	cp.b	r12,r8
80005238:	e0 88 00 03 	brls	8000523e <udd_ep_clear_halt+0x12>
8000523c:	d8 0a       	popm	pc,r12=0
8000523e:	fe 6a 01 c0 	mov	r10,-130624
80005242:	f8 09 15 02 	lsl	r9,r12,0x2
80005246:	f2 0a 00 08 	add	r8,r9,r10
8000524a:	70 0a       	ld.w	r10,r8[0x0]
8000524c:	20 1c       	sub	r12,1
8000524e:	49 6b       	lddpc	r11,800052a4 <udd_ep_clear_halt+0x78>
80005250:	f8 0c 00 2c 	add	r12,r12,r12<<0x2
80005254:	e6 1a 00 08 	andh	r10,0x8,COH
80005258:	f6 0c 00 28 	add	r8,r11,r12<<0x2
8000525c:	58 0a       	cp.w	r10,0
8000525e:	c0 51       	brne	80005268 <udd_ep_clear_halt+0x3c>
80005260:	70 0a       	ld.w	r10,r8[0x0]
80005262:	ed ba 00 1d 	bld	r10,0x1d
80005266:	c1 d1       	brne	800052a0 <udd_ep_clear_halt+0x74>
80005268:	70 0b       	ld.w	r11,r8[0x0]
8000526a:	fe 6c 02 20 	mov	r12,-130528
8000526e:	30 0a       	mov	r10,0
80005270:	f7 da d3 a1 	bfins	r11,r10,0x1d,0x1
80005274:	91 0b       	st.w	r8[0x0],r11
80005276:	f2 0c 00 0b 	add	r11,r9,r12
8000527a:	e8 6c 00 00 	mov	r12,524288
8000527e:	97 0c       	st.w	r11[0x0],r12
80005280:	fe 6c 01 00 	mov	r12,-130816
80005284:	f2 0c 00 0b 	add	r11,r9,r12
80005288:	76 09       	ld.w	r9,r11[0x0]
8000528a:	a9 b9       	sbr	r9,0x9
8000528c:	97 09       	st.w	r11[0x0],r9
8000528e:	70 09       	ld.w	r9,r8[0x0]
80005290:	58 09       	cp.w	r9,0
80005292:	c0 74       	brge	800052a0 <udd_ep_clear_halt+0x74>
80005294:	f3 da d3 e1 	bfins	r9,r10,0x1f,0x1
80005298:	91 09       	st.w	r8[0x0],r9
8000529a:	70 48       	ld.w	r8,r8[0x10]
8000529c:	5d 18       	icall	r8
8000529e:	da 0a       	popm	pc,r12=1
800052a0:	da 0a       	popm	pc,r12=1
800052a2:	d7 03       	nop
800052a4:	00 00       	add	r0,r0
800052a6:	04 20       	rsub	r0,r2

800052a8 <udd_ep_wait_stall_clear>:
800052a8:	d4 21       	pushm	r4-r7,lr
800052aa:	30 28       	mov	r8,2
800052ac:	f9 dc c0 04 	bfextu	r12,r12,0x0,0x4
800052b0:	f0 0c 18 00 	cp.b	r12,r8
800052b4:	e0 8b 00 29 	brhi	80005306 <udd_ep_wait_stall_clear+0x5e>
800052b8:	fe 68 00 00 	mov	r8,-131072
800052bc:	70 78       	ld.w	r8,r8[0x1c]
800052be:	30 17       	mov	r7,1
800052c0:	ee 0c 09 49 	lsl	r9,r7,r12
800052c4:	f3 e8 00 08 	and	r8,r9,r8
800052c8:	c1 f0       	breq	80005306 <udd_ep_wait_stall_clear+0x5e>
800052ca:	f8 c8 00 01 	sub	r8,r12,1
800052ce:	48 f9       	lddpc	r9,80005308 <udd_ep_wait_stall_clear+0x60>
800052d0:	f0 08 00 28 	add	r8,r8,r8<<0x2
800052d4:	f2 08 00 28 	add	r8,r9,r8<<0x2
800052d8:	70 0a       	ld.w	r10,r8[0x0]
800052da:	58 0a       	cp.w	r10,0
800052dc:	c1 55       	brlt	80005306 <udd_ep_wait_stall_clear+0x5e>
800052de:	a3 6c       	lsl	r12,0x2
800052e0:	e0 3c fe 40 	sub	r12,130624
800052e4:	78 09       	ld.w	r9,r12[0x0]
800052e6:	ed b9 00 13 	bld	r9,0x13
800052ea:	c0 40       	breq	800052f2 <udd_ep_wait_stall_clear+0x4a>
800052ec:	ed ba 00 1d 	bld	r10,0x1d
800052f0:	c0 81       	brne	80005300 <udd_ep_wait_stall_clear+0x58>
800052f2:	70 09       	ld.w	r9,r8[0x0]
800052f4:	30 1c       	mov	r12,1
800052f6:	91 4b       	st.w	r8[0x10],r11
800052f8:	f3 dc d3 e1 	bfins	r9,r12,0x1f,0x1
800052fc:	91 09       	st.w	r8[0x0],r9
800052fe:	d8 22       	popm	r4-r7,pc
80005300:	5d 1b       	icall	r11
80005302:	0e 9c       	mov	r12,r7
80005304:	d8 22       	popm	r4-r7,pc
80005306:	d8 2a       	popm	r4-r7,pc,r12=0
80005308:	00 00       	add	r0,r0
8000530a:	04 20       	rsub	r0,r2

8000530c <udd_ep_finish_job>:
8000530c:	d4 01       	pushm	lr
8000530e:	18 99       	mov	r9,r12
80005310:	16 9c       	mov	r12,r11
80005312:	72 08       	ld.w	r8,r9[0x0]
80005314:	58 08       	cp.w	r8,0
80005316:	c0 a4       	brge	8000532a <udd_ep_finish_job+0x1e>
80005318:	30 0a       	mov	r10,0
8000531a:	f1 da d3 e1 	bfins	r8,r10,0x1f,0x1
8000531e:	93 08       	st.w	r9[0x0],r8
80005320:	72 48       	ld.w	r8,r9[0x10]
80005322:	58 08       	cp.w	r8,0
80005324:	c0 30       	breq	8000532a <udd_ep_finish_job+0x1e>
80005326:	72 2b       	ld.w	r11,r9[0x8]
80005328:	5d 18       	icall	r8
8000532a:	d8 02       	popm	pc

8000532c <udd_ep_abort>:
8000532c:	d4 01       	pushm	lr
8000532e:	f1 dc c0 04 	bfextu	r8,r12,0x0,0x4
80005332:	f0 cc 00 01 	sub	r12,r8,1
80005336:	a5 68       	lsl	r8,0x4
80005338:	e0 38 fd 00 	sub	r8,130304
8000533c:	30 09       	mov	r9,0
8000533e:	91 29       	st.w	r8[0x8],r9
80005340:	48 48       	lddpc	r8,80005350 <udd_ep_abort+0x24>
80005342:	f8 0c 00 2c 	add	r12,r12,r12<<0x2
80005346:	30 1b       	mov	r11,1
80005348:	f0 0c 00 2c 	add	r12,r8,r12<<0x2
8000534c:	ce 0f       	rcall	8000530c <udd_ep_finish_job>
8000534e:	d8 02       	popm	pc
80005350:	00 00       	add	r0,r0
80005352:	04 20       	rsub	r0,r2

80005354 <udd_ep_free>:
80005354:	d4 01       	pushm	lr
80005356:	fe 69 00 00 	mov	r9,-131072
8000535a:	f1 dc c0 04 	bfextu	r8,r12,0x0,0x4
8000535e:	30 1b       	mov	r11,1
80005360:	72 7c       	ld.w	r12,r9[0x1c]
80005362:	f6 08 09 4a 	lsl	r10,r11,r8
80005366:	5c da       	com	r10
80005368:	18 6a       	and	r10,r12
8000536a:	93 7a       	st.w	r9[0x1c],r10
8000536c:	48 89       	lddpc	r9,8000538c <udd_ep_free+0x38>
8000536e:	f0 cc 00 01 	sub	r12,r8,1
80005372:	a3 68       	lsl	r8,0x2
80005374:	f8 0c 00 2c 	add	r12,r12,r12<<0x2
80005378:	e0 38 ff 00 	sub	r8,130816
8000537c:	f2 0c 00 2c 	add	r12,r9,r12<<0x2
80005380:	70 09       	ld.w	r9,r8[0x0]
80005382:	a1 d9       	cbr	r9,0x1
80005384:	91 09       	st.w	r8[0x0],r9
80005386:	cc 3f       	rcall	8000530c <udd_ep_finish_job>
80005388:	d8 02       	popm	pc
8000538a:	d7 03       	nop
8000538c:	00 00       	add	r0,r0
8000538e:	04 20       	rsub	r0,r2

80005390 <cpu_irq_save>:
80005390:	e1 bc 00 00 	mfsr	r12,0x0
80005394:	d3 03       	ssrf	0x10
80005396:	5e fc       	retal	r12

80005398 <udd_ep_trans_done>:
80005398:	d4 31       	pushm	r0-r7,lr
8000539a:	4c e8       	lddpc	r8,800054d0 <udd_ep_trans_done+0x138>
8000539c:	f8 c7 00 01 	sub	r7,r12,1
800053a0:	18 96       	mov	r6,r12
800053a2:	ee 07 00 27 	add	r7,r7,r7<<0x2
800053a6:	f0 07 00 27 	add	r7,r8,r7<<0x2
800053aa:	6e 08       	ld.w	r8,r7[0x0]
800053ac:	58 08       	cp.w	r8,0
800053ae:	e0 84 00 8f 	brge	800054cc <udd_ep_trans_done+0x134>
800053b2:	6e 38       	ld.w	r8,r7[0xc]
800053b4:	6e 25       	ld.w	r5,r7[0x8]
800053b6:	0a 38       	cp.w	r8,r5
800053b8:	c5 a0       	breq	8000546c <udd_ep_trans_done+0xd4>
800053ba:	10 15       	sub	r5,r8
800053bc:	e0 55 00 00 	cp.w	r5,65536
800053c0:	e0 88 00 06 	brls	800053cc <udd_ep_trans_done+0x34>
800053c4:	e0 75 00 00 	mov	r5,65536
800053c8:	30 04       	mov	r4,0
800053ca:	c0 38       	rjmp	800053d0 <udd_ep_trans_done+0x38>
800053cc:	ea 04 15 10 	lsl	r4,r5,0x10
800053d0:	ec 08 15 02 	lsl	r8,r6,0x2
800053d4:	e0 38 ff 00 	sub	r8,130816
800053d8:	70 09       	ld.w	r9,r8[0x0]
800053da:	ed b9 00 08 	bld	r9,0x8
800053de:	c1 21       	brne	80005402 <udd_ep_trans_done+0x6a>
800053e0:	70 08       	ld.w	r8,r8[0x0]
800053e2:	30 89       	mov	r9,8
800053e4:	f1 d8 c0 83 	bfextu	r8,r8,0x4,0x3
800053e8:	f2 08 09 48 	lsl	r8,r9,r8
800053ec:	20 18       	sub	r8,1
800053ee:	eb e8 00 08 	and	r8,r5,r8
800053f2:	c1 80       	breq	80005422 <udd_ep_trans_done+0x8a>
800053f4:	6e 08       	ld.w	r8,r7[0x0]
800053f6:	12 44       	or	r4,r9
800053f8:	30 09       	mov	r9,0
800053fa:	f1 d9 d3 c1 	bfins	r8,r9,0x1e,0x1
800053fe:	8f 08       	st.w	r7[0x0],r8
80005400:	c1 18       	rjmp	80005422 <udd_ep_trans_done+0x8a>
80005402:	70 09       	ld.w	r9,r8[0x0]
80005404:	f3 d9 c1 62 	bfextu	r9,r9,0xb,0x2
80005408:	58 19       	cp.w	r9,1
8000540a:	c0 a1       	brne	8000541e <udd_ep_trans_done+0x86>
8000540c:	70 08       	ld.w	r8,r8[0x0]
8000540e:	30 89       	mov	r9,8
80005410:	f1 d8 c0 83 	bfextu	r8,r8,0x4,0x3
80005414:	f2 08 09 48 	lsl	r8,r9,r8
80005418:	10 35       	cp.w	r5,r8
8000541a:	e0 8b 00 04 	brhi	80005422 <udd_ep_trans_done+0x8a>
8000541e:	e8 14 00 14 	orl	r4,0x14
80005422:	6e 38       	ld.w	r8,r7[0xc]
80005424:	6e 19       	ld.w	r9,r7[0x4]
80005426:	f2 08 00 08 	add	r8,r9,r8
8000542a:	ec 03 15 04 	lsl	r3,r6,0x4
8000542e:	e0 33 fd 00 	sub	r3,130304
80005432:	87 18       	st.w	r3[0x4],r8
80005434:	ca ef       	rcall	80005390 <cpu_irq_save>
80005436:	66 38       	ld.w	r8,r3[0xc]
80005438:	ed b8 00 04 	bld	r8,0x4
8000543c:	c1 40       	breq	80005464 <udd_ep_trans_done+0xcc>
8000543e:	e8 14 00 21 	orl	r4,0x21
80005442:	87 24       	st.w	r3[0x8],r4
80005444:	6e 38       	ld.w	r8,r7[0xc]
80005446:	f0 05 00 05 	add	r5,r8,r5
8000544a:	30 08       	mov	r8,0
8000544c:	ea 18 02 00 	orh	r8,0x200
80005450:	8f 35       	st.w	r7[0xc],r5
80005452:	20 16       	sub	r6,1
80005454:	f0 06 09 46 	lsl	r6,r8,r6
80005458:	fe 68 00 00 	mov	r8,-131072
8000545c:	91 66       	st.w	r8[0x18],r6
8000545e:	e3 bc 00 00 	mtsr	0x0,r12
80005462:	d8 32       	popm	r0-r7,pc
80005464:	e3 bc 00 00 	mtsr	0x0,r12
80005468:	6e 38       	ld.w	r8,r7[0xc]
8000546a:	8f 28       	st.w	r7[0x8],r8
8000546c:	ec 08 15 02 	lsl	r8,r6,0x2
80005470:	fe 6b 01 00 	mov	r11,-130816
80005474:	f0 0b 00 09 	add	r9,r8,r11
80005478:	72 09       	ld.w	r9,r9[0x0]
8000547a:	ed b9 00 08 	bld	r9,0x8
8000547e:	c2 41       	brne	800054c6 <udd_ep_trans_done+0x12e>
80005480:	6e 09       	ld.w	r9,r7[0x0]
80005482:	ed b9 00 1e 	bld	r9,0x1e
80005486:	c2 01       	brne	800054c6 <udd_ep_trans_done+0x12e>
80005488:	fe 6a 01 60 	mov	r10,-130720
8000548c:	f0 0a 00 09 	add	r9,r8,r10
80005490:	30 1a       	mov	r10,1
80005492:	93 0a       	st.w	r9[0x0],r10
80005494:	fe 6b 01 30 	mov	r11,-130768
80005498:	f0 0b 00 09 	add	r9,r8,r11
8000549c:	72 09       	ld.w	r9,r9[0x0]
8000549e:	ed b9 00 10 	bld	r9,0x10
800054a2:	c0 61       	brne	800054ae <udd_ep_trans_done+0x116>
800054a4:	fe 6b 01 90 	mov	r11,-130672
800054a8:	f0 0b 00 09 	add	r9,r8,r11
800054ac:	93 0a       	st.w	r9[0x0],r10
800054ae:	e0 38 fe 10 	sub	r8,130576
800054b2:	30 19       	mov	r9,1
800054b4:	91 09       	st.w	r8[0x0],r9
800054b6:	e0 68 10 00 	mov	r8,4096
800054ba:	f0 06 09 46 	lsl	r6,r8,r6
800054be:	fe 68 00 00 	mov	r8,-131072
800054c2:	91 66       	st.w	r8[0x18],r6
800054c4:	d8 32       	popm	r0-r7,pc
800054c6:	0e 9c       	mov	r12,r7
800054c8:	30 0b       	mov	r11,0
800054ca:	c2 1f       	rcall	8000530c <udd_ep_finish_job>
800054cc:	d8 32       	popm	r0-r7,pc
800054ce:	d7 03       	nop
800054d0:	00 00       	add	r0,r0
800054d2:	04 20       	rsub	r0,r2

800054d4 <udd_ep_run>:
800054d4:	d4 31       	pushm	r0-r7,lr
800054d6:	10 90       	mov	r0,r8
800054d8:	16 97       	mov	r7,r11
800054da:	14 96       	mov	r6,r10
800054dc:	12 95       	mov	r5,r9
800054de:	e7 dc c0 04 	bfextu	r3,r12,0x0,0x4
800054e2:	30 28       	mov	r8,2
800054e4:	f0 03 18 00 	cp.b	r3,r8
800054e8:	e0 8b 00 39 	brhi	8000555a <udd_ep_run+0x86>
800054ec:	fe 68 00 00 	mov	r8,-131072
800054f0:	70 78       	ld.w	r8,r8[0x1c]
800054f2:	30 11       	mov	r1,1
800054f4:	e2 03 09 49 	lsl	r9,r1,r3
800054f8:	f3 e8 00 08 	and	r8,r9,r8
800054fc:	c2 f0       	breq	8000555a <udd_ep_run+0x86>
800054fe:	e6 08 15 02 	lsl	r8,r3,0x2
80005502:	e0 38 fe 40 	sub	r8,130624
80005506:	70 08       	ld.w	r8,r8[0x0]
80005508:	ed b8 00 13 	bld	r8,0x13
8000550c:	c2 70       	breq	8000555a <udd_ep_run+0x86>
8000550e:	e6 c4 00 01 	sub	r4,r3,1
80005512:	49 38       	lddpc	r8,8000555c <udd_ep_run+0x88>
80005514:	e8 04 00 24 	add	r4,r4,r4<<0x2
80005518:	f0 04 00 24 	add	r4,r8,r4<<0x2
8000551c:	68 02       	ld.w	r2,r4[0x0]
8000551e:	e6 12 20 00 	andh	r2,0x2000,COH
80005522:	c1 c1       	brne	8000555a <udd_ep_run+0x86>
80005524:	c3 6f       	rcall	80005390 <cpu_irq_save>
80005526:	68 09       	ld.w	r9,r4[0x0]
80005528:	12 98       	mov	r8,r9
8000552a:	e6 18 80 00 	andh	r8,0x8000,COH
8000552e:	c0 50       	breq	80005538 <udd_ep_run+0x64>
80005530:	e3 bc 00 00 	mtsr	0x0,r12
80005534:	04 9c       	mov	r12,r2
80005536:	d8 32       	popm	r0-r7,pc
80005538:	f3 d1 d3 e1 	bfins	r9,r1,0x1f,0x1
8000553c:	89 09       	st.w	r4[0x0],r9
8000553e:	e3 bc 00 00 	mtsr	0x0,r12
80005542:	89 38       	st.w	r4[0xc],r8
80005544:	68 08       	ld.w	r8,r4[0x0]
80005546:	f1 d7 d3 c1 	bfins	r8,r7,0x1e,0x1
8000554a:	06 9c       	mov	r12,r3
8000554c:	89 16       	st.w	r4[0x4],r6
8000554e:	89 25       	st.w	r4[0x8],r5
80005550:	89 40       	st.w	r4[0x10],r0
80005552:	89 08       	st.w	r4[0x0],r8
80005554:	c2 2f       	rcall	80005398 <udd_ep_trans_done>
80005556:	02 9c       	mov	r12,r1
80005558:	d8 32       	popm	r0-r7,pc
8000555a:	d8 3a       	popm	r0-r7,pc,r12=0
8000555c:	00 00       	add	r0,r0
8000555e:	04 20       	rsub	r0,r2

80005560 <sleepmgr_unlock_mode>:
80005560:	d4 21       	pushm	r4-r7,lr
80005562:	18 97       	mov	r7,r12
80005564:	c1 6f       	rcall	80005390 <cpu_irq_save>
80005566:	48 58       	lddpc	r8,80005578 <sleepmgr_unlock_mode+0x18>
80005568:	f0 07 07 09 	ld.ub	r9,r8[r7]
8000556c:	20 19       	sub	r9,1
8000556e:	f0 07 0b 09 	st.b	r8[r7],r9
80005572:	e3 bc 00 00 	mtsr	0x0,r12
80005576:	d8 22       	popm	r4-r7,pc
80005578:	00 00       	add	r0,r0
8000557a:	09 ac       	ld.ub	r12,r4[0x2]

8000557c <sleepmgr_lock_mode>:
8000557c:	d4 21       	pushm	r4-r7,lr
8000557e:	18 97       	mov	r7,r12
80005580:	c0 8f       	rcall	80005390 <cpu_irq_save>
80005582:	48 58       	lddpc	r8,80005594 <sleepmgr_lock_mode+0x18>
80005584:	f0 07 07 09 	ld.ub	r9,r8[r7]
80005588:	2f f9       	sub	r9,-1
8000558a:	f0 07 0b 09 	st.b	r8[r7],r9
8000558e:	e3 bc 00 00 	mtsr	0x0,r12
80005592:	d8 22       	popm	r4-r7,pc
80005594:	00 00       	add	r0,r0
80005596:	09 ac       	ld.ub	r12,r4[0x2]

80005598 <udd_sleep_mode>:
80005598:	d4 21       	pushm	r4-r7,lr
8000559a:	48 b8       	lddpc	r8,800055c4 <udd_sleep_mode+0x2c>
8000559c:	18 97       	mov	r7,r12
8000559e:	58 0c       	cp.w	r12,0
800055a0:	c0 81       	brne	800055b0 <udd_sleep_mode+0x18>
800055a2:	11 89       	ld.ub	r9,r8[0x0]
800055a4:	f8 09 18 00 	cp.b	r9,r12
800055a8:	c0 b0       	breq	800055be <udd_sleep_mode+0x26>
800055aa:	30 1c       	mov	r12,1
800055ac:	cd af       	rcall	80005560 <sleepmgr_unlock_mode>
800055ae:	c0 88       	rjmp	800055be <udd_sleep_mode+0x26>
800055b0:	11 89       	ld.ub	r9,r8[0x0]
800055b2:	30 08       	mov	r8,0
800055b4:	f0 09 18 00 	cp.b	r9,r8
800055b8:	c0 31       	brne	800055be <udd_sleep_mode+0x26>
800055ba:	30 1c       	mov	r12,1
800055bc:	ce 0f       	rcall	8000557c <sleepmgr_lock_mode>
800055be:	48 28       	lddpc	r8,800055c4 <udd_sleep_mode+0x2c>
800055c0:	b0 87       	st.b	r8[0x0],r7
800055c2:	d8 22       	popm	r4-r7,pc
800055c4:	00 00       	add	r0,r0
800055c6:	04 48       	or	r8,r2

800055c8 <udd_detach>:
800055c8:	d4 01       	pushm	lr
800055ca:	fe 68 08 00 	mov	r8,-129024
800055ce:	70 09       	ld.w	r9,r8[0x0]
800055d0:	af c9       	cbr	r9,0xe
800055d2:	fe 6a 00 00 	mov	r10,-131072
800055d6:	91 09       	st.w	r8[0x0],r9
800055d8:	74 09       	ld.w	r9,r10[0x0]
800055da:	a9 a9       	sbr	r9,0x8
800055dc:	95 09       	st.w	r10[0x0],r9
800055de:	70 09       	ld.w	r9,r8[0x0]
800055e0:	af a9       	sbr	r9,0xe
800055e2:	30 0c       	mov	r12,0
800055e4:	91 09       	st.w	r8[0x0],r9
800055e6:	cd 9f       	rcall	80005598 <udd_sleep_mode>
800055e8:	d8 02       	popm	pc
800055ea:	d7 03       	nop

800055ec <udd_attach>:
800055ec:	d4 21       	pushm	r4-r7,lr
800055ee:	cd 1e       	rcall	80005390 <cpu_irq_save>
800055f0:	18 97       	mov	r7,r12
800055f2:	30 1c       	mov	r12,1
800055f4:	cd 2f       	rcall	80005598 <udd_sleep_mode>
800055f6:	fe 69 08 00 	mov	r9,-129024
800055fa:	fe 6a 08 04 	mov	r10,-129020
800055fe:	72 08       	ld.w	r8,r9[0x0]
80005600:	af c8       	cbr	r8,0xe
80005602:	93 08       	st.w	r9[0x0],r8
80005604:	74 08       	ld.w	r8,r10[0x0]
80005606:	ed b8 00 0e 	bld	r8,0xe
8000560a:	cf d1       	brne	80005604 <udd_attach+0x18>
8000560c:	fe 69 00 00 	mov	r9,-131072
80005610:	72 08       	ld.w	r8,r9[0x0]
80005612:	a9 c8       	cbr	r8,0x8
80005614:	93 08       	st.w	r9[0x0],r8
80005616:	30 8c       	mov	r12,8
80005618:	fe 68 00 18 	mov	r8,-131048
8000561c:	91 0c       	st.w	r8[0x0],r12
8000561e:	30 1a       	mov	r10,1
80005620:	91 0a       	st.w	r8[0x0],r10
80005622:	31 09       	mov	r9,16
80005624:	91 09       	st.w	r8[0x0],r9
80005626:	30 4b       	mov	r11,4
80005628:	91 0b       	st.w	r8[0x0],r11
8000562a:	fe 68 00 08 	mov	r8,-131064
8000562e:	91 0c       	st.w	r8[0x0],r12
80005630:	91 0b       	st.w	r8[0x0],r11
80005632:	30 2b       	mov	r11,2
80005634:	91 0b       	st.w	r8[0x0],r11
80005636:	fe 6b 00 0c 	mov	r11,-131060
8000563a:	97 0a       	st.w	r11[0x0],r10
8000563c:	91 09       	st.w	r8[0x0],r9
8000563e:	fe 69 08 00 	mov	r9,-129024
80005642:	72 08       	ld.w	r8,r9[0x0]
80005644:	af a8       	sbr	r8,0xe
80005646:	93 08       	st.w	r9[0x0],r8
80005648:	e3 b7 00 00 	mtsr	0x0,r7
8000564c:	d8 22       	popm	r4-r7,pc
8000564e:	d7 03       	nop

80005650 <udd_ctrl_send_zlp_in>:
80005650:	d4 01       	pushm	lr
80005652:	30 39       	mov	r9,3
80005654:	48 88       	lddpc	r8,80005674 <udd_ctrl_send_zlp_in+0x24>
80005656:	91 09       	st.w	r8[0x0],r9
80005658:	c9 ce       	rcall	80005390 <cpu_irq_save>
8000565a:	fe 6a 01 60 	mov	r10,-130720
8000565e:	30 19       	mov	r9,1
80005660:	95 09       	st.w	r10[0x0],r9
80005662:	fe 68 01 f0 	mov	r8,-130576
80005666:	91 09       	st.w	r8[0x0],r9
80005668:	30 89       	mov	r9,8
8000566a:	95 09       	st.w	r10[0x0],r9
8000566c:	91 09       	st.w	r8[0x0],r9
8000566e:	e3 bc 00 00 	mtsr	0x0,r12
80005672:	d8 02       	popm	pc
80005674:	00 00       	add	r0,r0
80005676:	04 4c       	or	r12,r2

80005678 <udd_ctrl_init>:
80005678:	d4 01       	pushm	lr
8000567a:	c8 be       	rcall	80005390 <cpu_irq_save>
8000567c:	30 19       	mov	r9,1
8000567e:	fe 68 02 20 	mov	r8,-130528
80005682:	91 09       	st.w	r8[0x0],r9
80005684:	e3 bc 00 00 	mtsr	0x0,r12
80005688:	48 69       	lddpc	r9,800056a0 <udd_ctrl_init+0x28>
8000568a:	30 08       	mov	r8,0
8000568c:	b2 68       	st.h	r9[0xc],r8
8000568e:	93 48       	st.w	r9[0x10],r8
80005690:	93 58       	st.w	r9[0x14],r8
80005692:	fe 69 01 60 	mov	r9,-130720
80005696:	30 2a       	mov	r10,2
80005698:	93 0a       	st.w	r9[0x0],r10
8000569a:	48 39       	lddpc	r9,800056a4 <udd_ctrl_init+0x2c>
8000569c:	93 08       	st.w	r9[0x0],r8
8000569e:	d8 02       	popm	pc
800056a0:	00 00       	add	r0,r0
800056a2:	09 94       	ld.ub	r4,r4[0x1]
800056a4:	00 00       	add	r0,r0
800056a6:	04 4c       	or	r12,r2

800056a8 <udd_ctrl_in_sent>:
800056a8:	d4 21       	pushm	r4-r7,lr
800056aa:	c7 3e       	rcall	80005390 <cpu_irq_save>
800056ac:	30 19       	mov	r9,1
800056ae:	fe 68 02 20 	mov	r8,-130528
800056b2:	91 09       	st.w	r8[0x0],r9
800056b4:	e3 bc 00 00 	mtsr	0x0,r12
800056b8:	4b 18       	lddpc	r8,8000577c <udd_ctrl_in_sent+0xd4>
800056ba:	4b 26       	lddpc	r6,80005780 <udd_ctrl_in_sent+0xd8>
800056bc:	70 08       	ld.w	r8,r8[0x0]
800056be:	58 38       	cp.w	r8,3
800056c0:	c0 71       	brne	800056ce <udd_ctrl_in_sent+0x26>
800056c2:	6c 48       	ld.w	r8,r6[0x10]
800056c4:	58 08       	cp.w	r8,0
800056c6:	c0 20       	breq	800056ca <udd_ctrl_in_sent+0x22>
800056c8:	5d 18       	icall	r8
800056ca:	cd 7f       	rcall	80005678 <udd_ctrl_init>
800056cc:	d8 22       	popm	r4-r7,pc
800056ce:	4a e5       	lddpc	r5,80005784 <udd_ctrl_in_sent+0xdc>
800056d0:	8c 67       	ld.sh	r7,r6[0xc]
800056d2:	8a 08       	ld.sh	r8,r5[0x0]
800056d4:	10 17       	sub	r7,r8
800056d6:	5c 87       	casts.h	r7
800056d8:	c1 f1       	brne	80005716 <udd_ctrl_in_sent+0x6e>
800056da:	4a ca       	lddpc	r10,80005788 <udd_ctrl_in_sent+0xe0>
800056dc:	94 09       	ld.sh	r9,r10[0x0]
800056de:	10 09       	add	r9,r8
800056e0:	b4 09       	st.h	r10[0x0],r9
800056e2:	8c 3a       	ld.sh	r10,r6[0x6]
800056e4:	f2 0a 19 00 	cp.h	r10,r9
800056e8:	c0 40       	breq	800056f0 <udd_ctrl_in_sent+0x48>
800056ea:	f1 d8 c0 06 	bfextu	r8,r8,0x0,0x6
800056ee:	c0 d0       	breq	80005708 <udd_ctrl_in_sent+0x60>
800056f0:	30 49       	mov	r9,4
800056f2:	4a 38       	lddpc	r8,8000577c <udd_ctrl_in_sent+0xd4>
800056f4:	91 09       	st.w	r8[0x0],r9
800056f6:	c4 de       	rcall	80005390 <cpu_irq_save>
800056f8:	31 08       	mov	r8,16
800056fa:	fe 69 01 60 	mov	r9,-130720
800056fe:	93 08       	st.w	r9[0x0],r8
80005700:	fe 69 01 f0 	mov	r9,-130576
80005704:	93 08       	st.w	r9[0x0],r8
80005706:	c3 78       	rjmp	80005774 <udd_ctrl_in_sent+0xcc>
80005708:	6c 5c       	ld.w	r12,r6[0x14]
8000570a:	58 0c       	cp.w	r12,0
8000570c:	c0 a0       	breq	80005720 <udd_ctrl_in_sent+0x78>
8000570e:	5d 1c       	icall	r12
80005710:	c0 80       	breq	80005720 <udd_ctrl_in_sent+0x78>
80005712:	aa 07       	st.h	r5[0x0],r7
80005714:	8c 67       	ld.sh	r7,r6[0xc]
80005716:	34 08       	mov	r8,64
80005718:	ee 08 19 00 	cp.h	r8,r7
8000571c:	f9 b7 03 40 	movlo	r7,64
80005720:	49 88       	lddpc	r8,80005780 <udd_ctrl_in_sent+0xd8>
80005722:	70 26       	ld.w	r6,r8[0x8]
80005724:	49 88       	lddpc	r8,80005784 <udd_ctrl_in_sent+0xdc>
80005726:	90 05       	ld.sh	r5,r8[0x0]
80005728:	c3 4e       	rcall	80005390 <cpu_irq_save>
8000572a:	fe 68 01 30 	mov	r8,-130768
8000572e:	70 08       	ld.w	r8,r8[0x0]
80005730:	ed b8 00 01 	bld	r8,0x1
80005734:	c0 70       	breq	80005742 <udd_ctrl_in_sent+0x9a>
80005736:	5c 75       	castu.h	r5
80005738:	30 08       	mov	r8,0
8000573a:	ea 18 d0 00 	orh	r8,0xd000
8000573e:	0a 06       	add	r6,r5
80005740:	c0 98       	rjmp	80005752 <udd_ctrl_in_sent+0xaa>
80005742:	e3 bc 00 00 	mtsr	0x0,r12
80005746:	30 49       	mov	r9,4
80005748:	48 d8       	lddpc	r8,8000577c <udd_ctrl_in_sent+0xd4>
8000574a:	91 09       	st.w	r8[0x0],r9
8000574c:	d8 22       	popm	r4-r7,pc
8000574e:	0d 39       	ld.ub	r9,r6++
80005750:	10 c9       	st.b	r8++,r9
80005752:	f3 d8 c0 08 	bfextu	r9,r8,0x0,0x8
80005756:	ee 09 19 00 	cp.h	r9,r7
8000575a:	cf a3       	brcs	8000574e <udd_ctrl_in_sent+0xa6>
8000575c:	30 19       	mov	r9,1
8000575e:	fe 68 01 60 	mov	r8,-130720
80005762:	91 09       	st.w	r8[0x0],r9
80005764:	fe 6a 01 f0 	mov	r10,-130576
80005768:	48 78       	lddpc	r8,80005784 <udd_ctrl_in_sent+0xdc>
8000576a:	95 09       	st.w	r10[0x0],r9
8000576c:	90 09       	ld.sh	r9,r8[0x0]
8000576e:	f2 07 00 07 	add	r7,r9,r7
80005772:	b0 07       	st.h	r8[0x0],r7
80005774:	e3 bc 00 00 	mtsr	0x0,r12
80005778:	d8 22       	popm	r4-r7,pc
8000577a:	d7 03       	nop
8000577c:	00 00       	add	r0,r0
8000577e:	04 4c       	or	r12,r2
80005780:	00 00       	add	r0,r0
80005782:	09 94       	ld.ub	r4,r4[0x1]
80005784:	00 00       	add	r0,r0
80005786:	04 4a       	or	r10,r2
80005788:	00 00       	add	r0,r0
8000578a:	04 1c       	sub	r12,r2

8000578c <udd_ep_alloc>:
8000578c:	d4 21       	pushm	r4-r7,lr
8000578e:	30 29       	mov	r9,2
80005790:	f1 dc c0 04 	bfextu	r8,r12,0x0,0x4
80005794:	f2 08 18 00 	cp.b	r8,r9
80005798:	e0 8b 00 88 	brhi	800058a8 <udd_ep_alloc+0x11c>
8000579c:	fe 69 00 00 	mov	r9,-131072
800057a0:	72 76       	ld.w	r6,r9[0x1c]
800057a2:	30 17       	mov	r7,1
800057a4:	ee 08 09 4e 	lsl	lr,r7,r8
800057a8:	fd e6 00 06 	and	r6,lr,r6
800057ac:	c7 e1       	brne	800058a8 <udd_ep_alloc+0x11c>
800057ae:	f3 db c0 02 	bfextu	r9,r11,0x0,0x2
800057b2:	0e 39       	cp.w	r9,r7
800057b4:	c7 a5       	brlt	800058a8 <udd_ep_alloc+0x11c>
800057b6:	58 29       	cp.w	r9,2
800057b8:	e0 8a 00 05 	brle	800057c2 <udd_ep_alloc+0x36>
800057bc:	58 39       	cp.w	r9,3
800057be:	c7 51       	brne	800058a8 <udd_ep_alloc+0x11c>
800057c0:	c0 28       	rjmp	800057c4 <udd_ep_alloc+0x38>
800057c2:	0e 96       	mov	r6,r7
800057c4:	5c 7a       	castu.h	r10
800057c6:	f9 dc c0 e1 	bfextu	r12,r12,0x7,0x1
800057ca:	ab 7b       	lsl	r11,0xb
800057cc:	a3 66       	lsl	r6,0x2
800057ce:	e2 1b 18 00 	andl	r11,0x1800,COH
800057d2:	e2 16 00 0c 	andl	r6,0xc,COH
800057d6:	f7 ec 10 8b 	or	r11,r11,r12<<0x8
800057da:	f0 09 15 02 	lsl	r9,r8,0x2
800057de:	30 8c       	mov	r12,8
800057e0:	e0 39 ff 00 	sub	r9,130816
800057e4:	f4 0c 0c 4c 	max	r12,r10,r12
800057e8:	72 07       	ld.w	r7,r9[0x0]
800057ea:	e0 6a 04 00 	mov	r10,1024
800057ee:	e0 17 e6 83 	andl	r7,0xe683
800057f2:	f8 0a 0d 4c 	min	r12,r12,r10
800057f6:	a1 7c       	lsl	r12,0x1
800057f8:	20 1c       	sub	r12,1
800057fa:	f8 0c 12 00 	clz	r12,r12
800057fe:	f8 0c 11 1c 	rsub	r12,r12,28
80005802:	f7 ec 10 4b 	or	r11,r11,r12<<0x4
80005806:	0c 4b       	or	r11,r6
80005808:	e2 1b 19 7c 	andl	r11,0x197c,COH
8000580c:	f7 e7 10 07 	or	r7,r11,r7
80005810:	5c 8e       	casts.h	lr
80005812:	93 07       	st.w	r9[0x0],r7
80005814:	fe 6a 01 08 	mov	r10,-130808
80005818:	30 29       	mov	r9,2
8000581a:	fe 6b 00 00 	mov	r11,-131072
8000581e:	30 17       	mov	r7,1
80005820:	c1 58       	rjmp	8000584a <udd_ep_alloc+0xbe>
80005822:	76 76       	ld.w	r6,r11[0x1c]
80005824:	ee 09 09 4c 	lsl	r12,r7,r9
80005828:	f8 05 11 ff 	rsub	r5,r12,-1
8000582c:	f9 e6 00 06 	and	r6,r12,r6
80005830:	c0 b0       	breq	80005846 <udd_ep_alloc+0xba>
80005832:	76 76       	ld.w	r6,r11[0x1c]
80005834:	eb e6 00 06 	and	r6,r5,r6
80005838:	97 76       	st.w	r11[0x1c],r6
8000583a:	f9 ee 10 0e 	or	lr,r12,lr
8000583e:	74 0c       	ld.w	r12,r10[0x0]
80005840:	5c 8e       	casts.h	lr
80005842:	a1 dc       	cbr	r12,0x1
80005844:	95 0c       	st.w	r10[0x0],r12
80005846:	20 19       	sub	r9,1
80005848:	20 4a       	sub	r10,4
8000584a:	f0 09 18 00 	cp.b	r9,r8
8000584e:	fe 9b ff ea 	brhi	80005822 <udd_ep_alloc+0x96>
80005852:	5c 7e       	castu.h	lr
80005854:	fe 6a 00 00 	mov	r10,-131072
80005858:	30 17       	mov	r7,1
8000585a:	30 2c       	mov	r12,2
8000585c:	fe 66 01 00 	mov	r6,-130816
80005860:	f0 0b 15 02 	lsl	r11,r8,0x2
80005864:	ee 08 09 45 	lsl	r5,r7,r8
80005868:	f6 06 00 09 	add	r9,r11,r6
8000586c:	f0 c6 ff ff 	sub	r6,r8,-1
80005870:	e0 3b fe d0 	sub	r11,130768
80005874:	fc 08 08 48 	asr	r8,lr,r8
80005878:	ed b8 00 00 	bld	r8,0x0
8000587c:	c0 f1       	brne	8000589a <udd_ep_alloc+0x10e>
8000587e:	72 08       	ld.w	r8,r9[0x0]
80005880:	a1 b8       	sbr	r8,0x1
80005882:	93 08       	st.w	r9[0x0],r8
80005884:	74 78       	ld.w	r8,r10[0x1c]
80005886:	eb e8 10 08 	or	r8,r5,r8
8000588a:	95 78       	st.w	r10[0x1c],r8
8000588c:	76 08       	ld.w	r8,r11[0x0]
8000588e:	ed b8 00 12 	bld	r8,0x12
80005892:	c0 b1       	brne	800058a8 <udd_ep_alloc+0x11c>
80005894:	72 08       	ld.w	r8,r9[0x0]
80005896:	a9 b8       	sbr	r8,0x9
80005898:	93 08       	st.w	r9[0x0],r8
8000589a:	f1 d6 c0 08 	bfextu	r8,r6,0x0,0x8
8000589e:	f8 08 18 00 	cp.b	r8,r12
800058a2:	fe 98 ff dd 	brls	8000585c <udd_ep_alloc+0xd0>
800058a6:	da 2a       	popm	r4-r7,pc,r12=1
800058a8:	d8 2a       	popm	r4-r7,pc,r12=0
800058aa:	d7 03       	nop

800058ac <udd_enable>:
800058ac:	d4 21       	pushm	r4-r7,lr
800058ae:	fe b0 fd 71 	rcall	80005390 <cpu_irq_save>
800058b2:	18 97       	mov	r7,r12
800058b4:	e0 a0 03 bc 	rcall	8000602c <sysclk_enable_usb>
800058b8:	30 0a       	mov	r10,0
800058ba:	e0 6b 02 20 	mov	r11,544
800058be:	fe cc ff 56 	sub	r12,pc,-170
800058c2:	fe b0 fa d9 	rcall	80004e74 <INTC_register_interrupt>
800058c6:	fe 79 0c 00 	mov	r9,-62464
800058ca:	f2 f8 01 44 	ld.w	r8,r9[324]
800058ce:	a1 a8       	sbr	r8,0x0
800058d0:	f3 48 01 44 	st.w	r9[324],r8
800058d4:	fe 68 08 00 	mov	r8,-129024
800058d8:	70 09       	ld.w	r9,r8[0x0]
800058da:	b9 c9       	cbr	r9,0x18
800058dc:	91 09       	st.w	r8[0x0],r9
800058de:	70 09       	ld.w	r9,r8[0x0]
800058e0:	b9 b9       	sbr	r9,0x19
800058e2:	91 09       	st.w	r8[0x0],r9
800058e4:	70 09       	ld.w	r9,r8[0x0]
800058e6:	ad a9       	sbr	r9,0xc
800058e8:	91 09       	st.w	r8[0x0],r9
800058ea:	70 09       	ld.w	r9,r8[0x0]
800058ec:	af b9       	sbr	r9,0xf
800058ee:	91 09       	st.w	r8[0x0],r9
800058f0:	70 09       	ld.w	r9,r8[0x0]
800058f2:	af c9       	cbr	r9,0xe
800058f4:	91 09       	st.w	r8[0x0],r9
800058f6:	70 08       	ld.w	r8,r8[0x0]
800058f8:	fe 68 00 00 	mov	r8,-131072
800058fc:	70 09       	ld.w	r9,r8[0x0]
800058fe:	ad c9       	cbr	r9,0xc
80005900:	91 09       	st.w	r8[0x0],r9
80005902:	70 09       	ld.w	r9,r8[0x0]
80005904:	e8 19 0c 00 	orl	r9,0xc00
80005908:	30 0a       	mov	r10,0
8000590a:	91 09       	st.w	r8[0x0],r9
8000590c:	49 58       	lddpc	r8,80005960 <udd_enable+0xb4>
8000590e:	70 09       	ld.w	r9,r8[0x0]
80005910:	f3 d9 c0 1f 	bfextu	r9,r9,0x0,0x1f
80005914:	f3 da d3 a1 	bfins	r9,r10,0x1d,0x1
80005918:	91 09       	st.w	r8[0x0],r9
8000591a:	70 59       	ld.w	r9,r8[0x14]
8000591c:	f3 d9 c0 1f 	bfextu	r9,r9,0x0,0x1f
80005920:	f3 da d3 a1 	bfins	r9,r10,0x1d,0x1
80005924:	91 59       	st.w	r8[0x14],r9
80005926:	fe 68 08 08 	mov	r8,-129016
8000592a:	30 29       	mov	r9,2
8000592c:	91 09       	st.w	r8[0x0],r9
8000592e:	fe 68 08 04 	mov	r8,-129020
80005932:	70 08       	ld.w	r8,r8[0x0]
80005934:	ed b8 00 0b 	bld	r8,0xb
80005938:	c0 41       	brne	80005940 <udd_enable+0x94>
8000593a:	fe 68 08 0c 	mov	r8,-129012
8000593e:	91 09       	st.w	r8[0x0],r9
80005940:	fe 68 08 00 	mov	r8,-129024
80005944:	70 09       	ld.w	r9,r8[0x0]
80005946:	a1 b9       	sbr	r9,0x1
80005948:	91 09       	st.w	r8[0x0],r9
8000594a:	70 09       	ld.w	r9,r8[0x0]
8000594c:	af a9       	sbr	r9,0xe
8000594e:	91 09       	st.w	r8[0x0],r9
80005950:	30 09       	mov	r9,0
80005952:	48 58       	lddpc	r8,80005964 <udd_enable+0xb8>
80005954:	30 3c       	mov	r12,3
80005956:	b0 89       	st.b	r8[0x0],r9
80005958:	c1 2e       	rcall	8000557c <sleepmgr_lock_mode>
8000595a:	e3 b7 00 00 	mtsr	0x0,r7
8000595e:	d8 22       	popm	r4-r7,pc
80005960:	00 00       	add	r0,r0
80005962:	04 20       	rsub	r0,r2
80005964:	00 00       	add	r0,r0
80005966:	04 48       	or	r8,r2

80005968 <udd_interrupt>:
80005968:	eb cd 40 fc 	pushm	r2-r7,lr
8000596c:	fe 69 00 04 	mov	r9,-131068
80005970:	72 08       	ld.w	r8,r9[0x0]
80005972:	ed b8 00 02 	bld	r8,0x2
80005976:	c1 11       	brne	80005998 <udd_interrupt+0x30>
80005978:	fe 68 00 08 	mov	r8,-131064
8000597c:	30 49       	mov	r9,4
8000597e:	91 09       	st.w	r8[0x0],r9
80005980:	fe 68 08 04 	mov	r8,-129020
80005984:	70 08       	ld.w	r8,r8[0x0]
80005986:	f1 d8 c1 82 	bfextu	r8,r8,0xc,0x2
8000598a:	c0 31       	brne	80005990 <udd_interrupt+0x28>
8000598c:	e0 a0 04 2e 	rcall	800061e8 <udc_sof_notify>
80005990:	e0 a0 06 e8 	rcall	80006760 <main_sof_action>
80005994:	e0 8f 02 81 	bral	80005e96 <udd_interrupt+0x52e>
80005998:	72 08       	ld.w	r8,r9[0x0]
8000599a:	ed b8 00 01 	bld	r8,0x1
8000599e:	c0 91       	brne	800059b0 <udd_interrupt+0x48>
800059a0:	30 29       	mov	r9,2
800059a2:	fe 68 00 08 	mov	r8,-131064
800059a6:	91 09       	st.w	r8[0x0],r9
800059a8:	e0 a0 04 20 	rcall	800061e8 <udc_sof_notify>
800059ac:	e0 8f 02 75 	bral	80005e96 <udd_interrupt+0x52e>
800059b0:	fe 68 00 00 	mov	r8,-131072
800059b4:	70 18       	ld.w	r8,r8[0x4]
800059b6:	ed b8 00 0c 	bld	r8,0xc
800059ba:	e0 81 01 4e 	brne	80005c56 <udd_interrupt+0x2ee>
800059be:	fe 68 02 20 	mov	r8,-130528
800059c2:	31 09       	mov	r9,16
800059c4:	91 09       	st.w	r8[0x0],r9
800059c6:	30 89       	mov	r9,8
800059c8:	91 09       	st.w	r8[0x0],r9
800059ca:	fe 69 01 30 	mov	r9,-130768
800059ce:	72 08       	ld.w	r8,r9[0x0]
800059d0:	ed b8 00 02 	bld	r8,0x2
800059d4:	c6 51       	brne	80005a9e <udd_interrupt+0x136>
800059d6:	4c 68       	lddpc	r8,80005aec <udd_interrupt+0x184>
800059d8:	70 08       	ld.w	r8,r8[0x0]
800059da:	58 08       	cp.w	r8,0
800059dc:	c0 70       	breq	800059ea <udd_interrupt+0x82>
800059de:	4c 58       	lddpc	r8,80005af0 <udd_interrupt+0x188>
800059e0:	70 48       	ld.w	r8,r8[0x10]
800059e2:	58 08       	cp.w	r8,0
800059e4:	c0 20       	breq	800059e8 <udd_interrupt+0x80>
800059e6:	5d 18       	icall	r8
800059e8:	c4 8e       	rcall	80005678 <udd_ctrl_init>
800059ea:	fe 68 01 30 	mov	r8,-130768
800059ee:	70 08       	ld.w	r8,r8[0x0]
800059f0:	f1 d8 c2 8b 	bfextu	r8,r8,0x14,0xb
800059f4:	58 88       	cp.w	r8,8
800059f6:	c2 81       	brne	80005a46 <udd_interrupt+0xde>
800059f8:	30 08       	mov	r8,0
800059fa:	ea 18 d0 00 	orh	r8,0xd000
800059fe:	4b da       	lddpc	r10,80005af0 <udd_interrupt+0x188>
80005a00:	30 09       	mov	r9,0
80005a02:	ea 19 30 00 	orh	r9,0x3000
80005a06:	f0 0a 00 0b 	add	r11,r8,r10
80005a0a:	11 3c       	ld.ub	r12,r8++
80005a0c:	f6 09 0b 0c 	st.b	r11[r9],r12
80005a10:	4b 87       	lddpc	r7,80005af0 <udd_interrupt+0x188>
80005a12:	30 8b       	mov	r11,8
80005a14:	ea 1b d0 00 	orh	r11,0xd000
80005a18:	16 38       	cp.w	r8,r11
80005a1a:	cf 61       	brne	80005a06 <udd_interrupt+0x9e>
80005a1c:	8e 9a       	ld.uh	r10,r7[0x2]
80005a1e:	f4 0b 16 08 	lsr	r11,r10,0x8
80005a22:	f7 ea 10 8a 	or	r10,r11,r10<<0x8
80005a26:	8e a9       	ld.uh	r9,r7[0x4]
80005a28:	ae 1a       	st.h	r7[0x2],r10
80005a2a:	f2 0a 16 08 	lsr	r10,r9,0x8
80005a2e:	f5 e9 10 89 	or	r9,r10,r9<<0x8
80005a32:	8e b8       	ld.uh	r8,r7[0x6]
80005a34:	ae 29       	st.h	r7[0x4],r9
80005a36:	f0 09 16 08 	lsr	r9,r8,0x8
80005a3a:	f3 e8 10 88 	or	r8,r9,r8<<0x8
80005a3e:	ae 38       	st.h	r7[0x6],r8
80005a40:	e0 a0 04 a4 	rcall	80006388 <udc_process_setup>
80005a44:	c0 b1       	brne	80005a5a <udd_interrupt+0xf2>
80005a46:	e8 69 00 00 	mov	r9,524288
80005a4a:	fe 68 01 f0 	mov	r8,-130576
80005a4e:	91 09       	st.w	r8[0x0],r9
80005a50:	30 59       	mov	r9,5
80005a52:	4a 78       	lddpc	r8,80005aec <udd_interrupt+0x184>
80005a54:	91 09       	st.w	r8[0x0],r9
80005a56:	30 49       	mov	r9,4
80005a58:	ca e8       	rjmp	80005bb4 <udd_interrupt+0x24c>
80005a5a:	30 48       	mov	r8,4
80005a5c:	fe 69 01 60 	mov	r9,-130720
80005a60:	93 08       	st.w	r9[0x0],r8
80005a62:	30 08       	mov	r8,0
80005a64:	0f 8a       	ld.ub	r10,r7[0x0]
80005a66:	f0 0a 18 00 	cp.b	r10,r8
80005a6a:	c0 a4       	brge	80005a7e <udd_interrupt+0x116>
80005a6c:	4a 29       	lddpc	r9,80005af4 <udd_interrupt+0x18c>
80005a6e:	30 08       	mov	r8,0
80005a70:	b2 08       	st.h	r9[0x0],r8
80005a72:	4a 29       	lddpc	r9,80005af8 <udd_interrupt+0x190>
80005a74:	b2 08       	st.h	r9[0x0],r8
80005a76:	30 29       	mov	r9,2
80005a78:	49 d8       	lddpc	r8,80005aec <udd_interrupt+0x184>
80005a7a:	91 09       	st.w	r8[0x0],r9
80005a7c:	c1 b8       	rjmp	80005ab2 <udd_interrupt+0x14a>
80005a7e:	8e 3a       	ld.sh	r10,r7[0x6]
80005a80:	30 08       	mov	r8,0
80005a82:	f0 0a 19 00 	cp.h	r10,r8
80005a86:	e0 80 00 d3 	breq	80005c2c <udd_interrupt+0x2c4>
80005a8a:	31 07       	mov	r7,16
80005a8c:	93 07       	st.w	r9[0x0],r7
80005a8e:	49 a9       	lddpc	r9,80005af4 <udd_interrupt+0x18c>
80005a90:	b2 08       	st.h	r9[0x0],r8
80005a92:	49 a9       	lddpc	r9,80005af8 <udd_interrupt+0x190>
80005a94:	b2 08       	st.h	r9[0x0],r8
80005a96:	30 19       	mov	r9,1
80005a98:	49 58       	lddpc	r8,80005aec <udd_interrupt+0x184>
80005a9a:	91 09       	st.w	r8[0x0],r9
80005a9c:	c9 c8       	rjmp	80005bd4 <udd_interrupt+0x26c>
80005a9e:	72 08       	ld.w	r8,r9[0x0]
80005aa0:	ed b8 00 00 	bld	r8,0x0
80005aa4:	c0 b1       	brne	80005aba <udd_interrupt+0x152>
80005aa6:	fe 68 01 c0 	mov	r8,-130624
80005aaa:	70 08       	ld.w	r8,r8[0x0]
80005aac:	ed b8 00 00 	bld	r8,0x0
80005ab0:	c0 51       	brne	80005aba <udd_interrupt+0x152>
80005ab2:	fe b0 fd fb 	rcall	800056a8 <udd_ctrl_in_sent>
80005ab6:	e0 8f 01 f0 	bral	80005e96 <udd_interrupt+0x52e>
80005aba:	fe 68 01 30 	mov	r8,-130768
80005abe:	70 09       	ld.w	r9,r8[0x0]
80005ac0:	ed b9 00 01 	bld	r9,0x1
80005ac4:	e0 81 00 90 	brne	80005be4 <udd_interrupt+0x27c>
80005ac8:	48 9a       	lddpc	r10,80005aec <udd_interrupt+0x184>
80005aca:	74 09       	ld.w	r9,r10[0x0]
80005acc:	58 19       	cp.w	r9,1
80005ace:	c1 f0       	breq	80005b0c <udd_interrupt+0x1a4>
80005ad0:	58 29       	cp.w	r9,2
80005ad2:	5f 08       	sreq	r8
80005ad4:	58 49       	cp.w	r9,4
80005ad6:	5f 09       	sreq	r9
80005ad8:	f3 e8 10 08 	or	r8,r9,r8
80005adc:	c1 00       	breq	80005afc <udd_interrupt+0x194>
80005ade:	48 58       	lddpc	r8,80005af0 <udd_interrupt+0x188>
80005ae0:	70 48       	ld.w	r8,r8[0x10]
80005ae2:	58 08       	cp.w	r8,0
80005ae4:	e0 80 01 7b 	breq	80005dda <udd_interrupt+0x472>
80005ae8:	5d 18       	icall	r8
80005aea:	c7 89       	rjmp	80005dda <udd_interrupt+0x472>
80005aec:	00 00       	add	r0,r0
80005aee:	04 4c       	or	r12,r2
80005af0:	00 00       	add	r0,r0
80005af2:	09 94       	ld.ub	r4,r4[0x1]
80005af4:	00 00       	add	r0,r0
80005af6:	04 1c       	sub	r12,r2
80005af8:	00 00       	add	r0,r0
80005afa:	04 4a       	or	r10,r2
80005afc:	30 58       	mov	r8,5
80005afe:	e8 69 00 00 	mov	r9,524288
80005b02:	95 08       	st.w	r10[0x0],r8
80005b04:	fe 68 01 f0 	mov	r8,-130576
80005b08:	91 09       	st.w	r8[0x0],r9
80005b0a:	c6 89       	rjmp	80005dda <udd_interrupt+0x472>
80005b0c:	4c a9       	lddpc	r9,80005c34 <udd_interrupt+0x2cc>
80005b0e:	70 08       	ld.w	r8,r8[0x0]
80005b10:	92 6a       	ld.sh	r10,r9[0xc]
80005b12:	f1 d8 c2 8b 	bfextu	r8,r8,0x14,0xb
80005b16:	4c 99       	lddpc	r9,80005c38 <udd_interrupt+0x2d0>
80005b18:	f9 da c0 10 	bfextu	r12,r10,0x0,0x10
80005b1c:	92 09       	ld.sh	r9,r9[0x0]
80005b1e:	f7 d9 c0 10 	bfextu	r11,r9,0x0,0x10
80005b22:	f0 0b 00 0b 	add	r11,r8,r11
80005b26:	16 3c       	cp.w	r12,r11
80005b28:	c0 44       	brge	80005b30 <udd_interrupt+0x1c8>
80005b2a:	f4 09 01 08 	sub	r8,r10,r9
80005b2e:	5c 88       	casts.h	r8
80005b30:	4c 1a       	lddpc	r10,80005c34 <udd_interrupt+0x2cc>
80005b32:	74 2b       	ld.w	r11,r10[0x8]
80005b34:	f5 d9 c0 10 	bfextu	r10,r9,0x0,0x10
80005b38:	14 0b       	add	r11,r10
80005b3a:	30 0a       	mov	r10,0
80005b3c:	ea 1a d0 00 	orh	r10,0xd000
80005b40:	c0 38       	rjmp	80005b46 <udd_interrupt+0x1de>
80005b42:	15 3c       	ld.ub	r12,r10++
80005b44:	16 cc       	st.b	r11++,r12
80005b46:	f9 da c0 08 	bfextu	r12,r10,0x0,0x8
80005b4a:	f0 0c 19 00 	cp.h	r12,r8
80005b4e:	cf a3       	brcs	80005b42 <udd_interrupt+0x1da>
80005b50:	f0 09 00 09 	add	r9,r8,r9
80005b54:	4b 97       	lddpc	r7,80005c38 <udd_interrupt+0x2d0>
80005b56:	5c 89       	casts.h	r9
80005b58:	ae 09       	st.h	r7[0x0],r9
80005b5a:	34 0a       	mov	r10,64
80005b5c:	f4 08 19 00 	cp.h	r8,r10
80005b60:	c0 c1       	brne	80005b78 <udd_interrupt+0x210>
80005b62:	4b 58       	lddpc	r8,80005c34 <udd_interrupt+0x2cc>
80005b64:	f9 d9 c0 10 	bfextu	r12,r9,0x0,0x10
80005b68:	4b 56       	lddpc	r6,80005c3c <udd_interrupt+0x2d4>
80005b6a:	90 bb       	ld.uh	r11,r8[0x6]
80005b6c:	8c 8a       	ld.uh	r10,r6[0x0]
80005b6e:	f8 0a 00 0a 	add	r10,r12,r10
80005b72:	14 3b       	cp.w	r11,r10
80005b74:	e0 89 00 0e 	brgt	80005b90 <udd_interrupt+0x228>
80005b78:	4a f8       	lddpc	r8,80005c34 <udd_interrupt+0x2cc>
80005b7a:	b0 69       	st.h	r8[0xc],r9
80005b7c:	70 5c       	ld.w	r12,r8[0x14]
80005b7e:	58 0c       	cp.w	r12,0
80005b80:	c0 30       	breq	80005b86 <udd_interrupt+0x21e>
80005b82:	5d 1c       	icall	r12
80005b84:	c0 f0       	breq	80005ba2 <udd_interrupt+0x23a>
80005b86:	30 29       	mov	r9,2
80005b88:	fe 68 01 60 	mov	r8,-130720
80005b8c:	91 09       	st.w	r8[0x0],r9
80005b8e:	c4 f8       	rjmp	80005c2c <udd_interrupt+0x2c4>
80005b90:	90 6a       	ld.sh	r10,r8[0xc]
80005b92:	f2 0a 19 00 	cp.h	r10,r9
80005b96:	c1 91       	brne	80005bc8 <udd_interrupt+0x260>
80005b98:	70 5c       	ld.w	r12,r8[0x14]
80005b9a:	58 0c       	cp.w	r12,0
80005b9c:	c0 30       	breq	80005ba2 <udd_interrupt+0x23a>
80005b9e:	5d 1c       	icall	r12
80005ba0:	c0 d1       	brne	80005bba <udd_interrupt+0x252>
80005ba2:	e8 69 00 00 	mov	r9,524288
80005ba6:	fe 68 01 f0 	mov	r8,-130576
80005baa:	91 09       	st.w	r8[0x0],r9
80005bac:	30 59       	mov	r9,5
80005bae:	4a 58       	lddpc	r8,80005c40 <udd_interrupt+0x2d8>
80005bb0:	91 09       	st.w	r8[0x0],r9
80005bb2:	30 29       	mov	r9,2
80005bb4:	fe 68 01 60 	mov	r8,-130720
80005bb8:	c4 d8       	rjmp	80005c52 <udd_interrupt+0x2ea>
80005bba:	8e 09       	ld.sh	r9,r7[0x0]
80005bbc:	8c 08       	ld.sh	r8,r6[0x0]
80005bbe:	f2 08 00 08 	add	r8,r9,r8
80005bc2:	ac 08       	st.h	r6[0x0],r8
80005bc4:	30 08       	mov	r8,0
80005bc6:	ae 08       	st.h	r7[0x0],r8
80005bc8:	fe 68 01 60 	mov	r8,-130720
80005bcc:	30 29       	mov	r9,2
80005bce:	91 09       	st.w	r8[0x0],r9
80005bd0:	31 07       	mov	r7,16
80005bd2:	91 07       	st.w	r8[0x0],r7
80005bd4:	fe b0 fb de 	rcall	80005390 <cpu_irq_save>
80005bd8:	fe 68 01 f0 	mov	r8,-130576
80005bdc:	91 07       	st.w	r8[0x0],r7
80005bde:	e3 bc 00 00 	mtsr	0x0,r12
80005be2:	c5 a9       	rjmp	80005e96 <udd_interrupt+0x52e>
80005be4:	70 09       	ld.w	r9,r8[0x0]
80005be6:	ed b9 00 03 	bld	r9,0x3
80005bea:	c1 01       	brne	80005c0a <udd_interrupt+0x2a2>
80005bec:	30 8a       	mov	r10,8
80005bee:	fe 69 01 60 	mov	r9,-130720
80005bf2:	93 0a       	st.w	r9[0x0],r10
80005bf4:	70 08       	ld.w	r8,r8[0x0]
80005bf6:	ed b8 00 00 	bld	r8,0x0
80005bfa:	e0 80 01 4e 	breq	80005e96 <udd_interrupt+0x52e>
80005bfe:	49 18       	lddpc	r8,80005c40 <udd_interrupt+0x2d8>
80005c00:	70 08       	ld.w	r8,r8[0x0]
80005c02:	58 38       	cp.w	r8,3
80005c04:	e0 81 01 49 	brne	80005e96 <udd_interrupt+0x52e>
80005c08:	c2 18       	rjmp	80005c4a <udd_interrupt+0x2e2>
80005c0a:	70 09       	ld.w	r9,r8[0x0]
80005c0c:	ed b9 00 04 	bld	r9,0x4
80005c10:	c2 31       	brne	80005c56 <udd_interrupt+0x2ee>
80005c12:	31 0a       	mov	r10,16
80005c14:	fe 69 01 60 	mov	r9,-130720
80005c18:	93 0a       	st.w	r9[0x0],r10
80005c1a:	70 08       	ld.w	r8,r8[0x0]
80005c1c:	ed b8 00 01 	bld	r8,0x1
80005c20:	e0 80 01 3b 	breq	80005e96 <udd_interrupt+0x52e>
80005c24:	48 78       	lddpc	r8,80005c40 <udd_interrupt+0x2d8>
80005c26:	70 08       	ld.w	r8,r8[0x0]
80005c28:	58 18       	cp.w	r8,1
80005c2a:	c0 d1       	brne	80005c44 <udd_interrupt+0x2dc>
80005c2c:	fe b0 fd 12 	rcall	80005650 <udd_ctrl_send_zlp_in>
80005c30:	c3 39       	rjmp	80005e96 <udd_interrupt+0x52e>
80005c32:	d7 03       	nop
80005c34:	00 00       	add	r0,r0
80005c36:	09 94       	ld.ub	r4,r4[0x1]
80005c38:	00 00       	add	r0,r0
80005c3a:	04 4a       	or	r10,r2
80005c3c:	00 00       	add	r0,r0
80005c3e:	04 1c       	sub	r12,r2
80005c40:	00 00       	add	r0,r0
80005c42:	04 4c       	or	r12,r2
80005c44:	58 48       	cp.w	r8,4
80005c46:	e0 81 01 28 	brne	80005e96 <udd_interrupt+0x52e>
80005c4a:	e8 69 00 00 	mov	r9,524288
80005c4e:	fe 68 01 f0 	mov	r8,-130576
80005c52:	91 09       	st.w	r8[0x0],r9
80005c54:	c2 19       	rjmp	80005e96 <udd_interrupt+0x52e>
80005c56:	4b fc       	lddpc	r12,80005d50 <udd_interrupt+0x3e8>
80005c58:	fe 69 01 34 	mov	r9,-130764
80005c5c:	30 06       	mov	r6,0
80005c5e:	fe 6b 00 00 	mov	r11,-131072
80005c62:	30 03       	mov	r3,0
80005c64:	ea 13 02 00 	orh	r3,0x200
80005c68:	e0 64 10 00 	mov	r4,4096
80005c6c:	76 48       	ld.w	r8,r11[0x10]
80005c6e:	e6 06 09 4a 	lsl	r10,r3,r6
80005c72:	ec c7 ff ff 	sub	r7,r6,-1
80005c76:	f2 ce ff 70 	sub	lr,r9,-144
80005c7a:	f5 e8 00 08 	and	r8,r10,r8
80005c7e:	0e 96       	mov	r6,r7
80005c80:	c1 d0       	breq	80005cba <udd_interrupt+0x352>
80005c82:	76 18       	ld.w	r8,r11[0x4]
80005c84:	f5 e8 00 08 	and	r8,r10,r8
80005c88:	c1 90       	breq	80005cba <udd_interrupt+0x352>
80005c8a:	ee 08 15 04 	lsl	r8,r7,0x4
80005c8e:	e0 38 fd 00 	sub	r8,130304
80005c92:	70 39       	ld.w	r9,r8[0xc]
80005c94:	ed b9 00 00 	bld	r9,0x0
80005c98:	e0 80 00 ff 	breq	80005e96 <udd_interrupt+0x52e>
80005c9c:	fe 69 00 00 	mov	r9,-131072
80005ca0:	93 5a       	st.w	r9[0x14],r10
80005ca2:	70 38       	ld.w	r8,r8[0xc]
80005ca4:	b1 88       	lsr	r8,0x10
80005ca6:	c0 60       	breq	80005cb2 <udd_interrupt+0x34a>
80005ca8:	78 39       	ld.w	r9,r12[0xc]
80005caa:	f2 08 01 08 	sub	r8,r9,r8
80005cae:	99 28       	st.w	r12[0x8],r8
80005cb0:	99 38       	st.w	r12[0xc],r8
80005cb2:	0e 9c       	mov	r12,r7
80005cb4:	fe b0 fb 72 	rcall	80005398 <udd_ep_trans_done>
80005cb8:	ce f8       	rjmp	80005e96 <udd_interrupt+0x52e>
80005cba:	76 48       	ld.w	r8,r11[0x10]
80005cbc:	e8 07 09 45 	lsl	r5,r4,r7
80005cc0:	eb e8 00 08 	and	r8,r5,r8
80005cc4:	c4 00       	breq	80005d44 <udd_interrupt+0x3dc>
80005cc6:	7c 0a       	ld.w	r10,lr[0x0]
80005cc8:	e0 72 fe d0 	mov	r2,130768
80005ccc:	f5 da c0 01 	bfextu	r10,r10,0x0,0x1
80005cd0:	f2 02 00 08 	add	r8,r9,r2
80005cd4:	58 0a       	cp.w	r10,0
80005cd6:	c1 20       	breq	80005cfa <udd_interrupt+0x392>
80005cd8:	72 0a       	ld.w	r10,r9[0x0]
80005cda:	ed ba 00 00 	bld	r10,0x0
80005cde:	c0 e1       	brne	80005cfa <udd_interrupt+0x392>
80005ce0:	f2 c8 ff 10 	sub	r8,r9,-240
80005ce4:	30 1a       	mov	r10,1
80005ce6:	2d 09       	sub	r9,-48
80005ce8:	91 0a       	st.w	r8[0x0],r10
80005cea:	93 0a       	st.w	r9[0x0],r10
80005cec:	e0 69 40 00 	mov	r9,16384
80005cf0:	30 0b       	mov	r11,0
80005cf2:	91 09       	st.w	r8[0x0],r9
80005cf4:	fe b0 fb 0c 	rcall	8000530c <udd_ep_finish_job>
80005cf8:	cc f8       	rjmp	80005e96 <udd_interrupt+0x52e>
80005cfa:	7c 0a       	ld.w	r10,lr[0x0]
80005cfc:	ed ba 00 0c 	bld	r10,0xc
80005d00:	c2 21       	brne	80005d44 <udd_interrupt+0x3dc>
80005d02:	72 0a       	ld.w	r10,r9[0x0]
80005d04:	f5 da c1 82 	bfextu	r10,r10,0xc,0x2
80005d08:	c1 e1       	brne	80005d44 <udd_interrupt+0x3dc>
80005d0a:	fe 6b 02 20 	mov	r11,-130528
80005d0e:	f0 0b 00 09 	add	r9,r8,r11
80005d12:	e0 6b 10 00 	mov	r11,4096
80005d16:	93 0b       	st.w	r9[0x0],r11
80005d18:	fe 69 00 00 	mov	r9,-131072
80005d1c:	93 55       	st.w	r9[0x14],r5
80005d1e:	78 09       	ld.w	r9,r12[0x0]
80005d20:	f3 da d3 a1 	bfins	r9,r10,0x1d,0x1
80005d24:	99 09       	st.w	r12[0x0],r9
80005d26:	fe 69 01 00 	mov	r9,-130816
80005d2a:	f0 09 00 0a 	add	r10,r8,r9
80005d2e:	74 09       	ld.w	r9,r10[0x0]
80005d30:	a9 d9       	cbr	r9,0x9
80005d32:	95 09       	st.w	r10[0x0],r9
80005d34:	e8 69 00 00 	mov	r9,524288
80005d38:	e0 38 fe 10 	sub	r8,130576
80005d3c:	91 09       	st.w	r8[0x0],r9
80005d3e:	e4 69 00 00 	mov	r9,262144
80005d42:	c8 8b       	rjmp	80005c52 <udd_interrupt+0x2ea>
80005d44:	2e cc       	sub	r12,-20
80005d46:	2f c9       	sub	r9,-4
80005d48:	58 27       	cp.w	r7,2
80005d4a:	e0 80 00 af 	breq	80005ea8 <udd_interrupt+0x540>
80005d4e:	c8 fb       	rjmp	80005c6c <udd_interrupt+0x304>
80005d50:	00 00       	add	r0,r0
80005d52:	04 20       	rsub	r0,r2
80005d54:	fe 68 00 08 	mov	r8,-131064
80005d58:	4d 35       	lddpc	r5,80005ea4 <udd_interrupt+0x53c>
80005d5a:	30 86       	mov	r6,8
80005d5c:	0a 9c       	mov	r12,r5
80005d5e:	91 06       	st.w	r8[0x0],r6
80005d60:	30 1b       	mov	r11,1
80005d62:	fe b0 fa d5 	rcall	8000530c <udd_ep_finish_job>
80005d66:	ea cc ff ec 	sub	r12,r5,-20
80005d6a:	30 1b       	mov	r11,1
80005d6c:	fe b0 fa d0 	rcall	8000530c <udd_ep_finish_job>
80005d70:	e0 a0 02 ea 	rcall	80006344 <udc_reset>
80005d74:	fe 65 00 00 	mov	r5,-131072
80005d78:	6a 08       	ld.w	r8,r5[0x0]
80005d7a:	e0 18 ff 80 	andl	r8,0xff80
80005d7e:	8b 08       	st.w	r5[0x0],r8
80005d80:	34 0a       	mov	r10,64
80005d82:	6a 08       	ld.w	r8,r5[0x0]
80005d84:	a7 b8       	sbr	r8,0x7
80005d86:	8b 08       	st.w	r5[0x0],r8
80005d88:	f4 06 0c 46 	max	r6,r10,r6
80005d8c:	fe 68 01 00 	mov	r8,-130816
80005d90:	e0 6a 04 00 	mov	r10,1024
80005d94:	70 09       	ld.w	r9,r8[0x0]
80005d96:	ec 0a 0d 4a 	min	r10,r6,r10
80005d9a:	e0 19 e6 83 	andl	r9,0xe683
80005d9e:	a1 7a       	lsl	r10,0x1
80005da0:	20 1a       	sub	r10,1
80005da2:	f4 0a 12 00 	clz	r10,r10
80005da6:	f4 0a 11 1c 	rsub	r10,r10,28
80005daa:	a5 6a       	lsl	r10,0x4
80005dac:	e2 1a 19 7c 	andl	r10,0x197c,COH
80005db0:	f5 e9 10 09 	or	r9,r10,r9
80005db4:	91 09       	st.w	r8[0x0],r9
80005db6:	70 09       	ld.w	r9,r8[0x0]
80005db8:	a1 b9       	sbr	r9,0x1
80005dba:	91 09       	st.w	r8[0x0],r9
80005dbc:	6a 78       	ld.w	r8,r5[0x1c]
80005dbe:	a1 a8       	sbr	r8,0x0
80005dc0:	8b 78       	st.w	r5[0x1c],r8
80005dc2:	fe b0 fa e7 	rcall	80005390 <cpu_irq_save>
80005dc6:	fe 68 01 f0 	mov	r8,-130576
80005dca:	30 49       	mov	r9,4
80005dcc:	91 09       	st.w	r8[0x0],r9
80005dce:	91 07       	st.w	r8[0x0],r7
80005dd0:	e0 68 10 00 	mov	r8,4096
80005dd4:	8b 68       	st.w	r5[0x18],r8
80005dd6:	e3 bc 00 00 	mtsr	0x0,r12
80005dda:	fe b0 fc 4f 	rcall	80005678 <udd_ctrl_init>
80005dde:	c5 c8       	rjmp	80005e96 <udd_interrupt+0x52e>
80005de0:	fe 69 00 10 	mov	r9,-131056
80005de4:	72 09       	ld.w	r9,r9[0x0]
80005de6:	ed b9 00 00 	bld	r9,0x0
80005dea:	c1 a1       	brne	80005e1e <udd_interrupt+0x4b6>
80005dec:	70 08       	ld.w	r8,r8[0x0]
80005dee:	ed b8 00 00 	bld	r8,0x0
80005df2:	c1 61       	brne	80005e1e <udd_interrupt+0x4b6>
80005df4:	fe 68 08 00 	mov	r8,-129024
80005df8:	70 09       	ld.w	r9,r8[0x0]
80005dfa:	af c9       	cbr	r9,0xe
80005dfc:	91 09       	st.w	r8[0x0],r9
80005dfe:	fe 69 00 14 	mov	r9,-131052
80005e02:	30 1a       	mov	r10,1
80005e04:	93 0a       	st.w	r9[0x0],r10
80005e06:	fe 69 00 18 	mov	r9,-131048
80005e0a:	31 0a       	mov	r10,16
80005e0c:	93 0a       	st.w	r9[0x0],r10
80005e0e:	70 09       	ld.w	r9,r8[0x0]
80005e10:	af a9       	sbr	r9,0xe
80005e12:	91 09       	st.w	r8[0x0],r9
80005e14:	fe b0 fb c2 	rcall	80005598 <udd_sleep_mode>
80005e18:	e0 a0 04 98 	rcall	80006748 <main_suspend_action>
80005e1c:	c3 d8       	rjmp	80005e96 <udd_interrupt+0x52e>
80005e1e:	fe 68 00 10 	mov	r8,-131056
80005e22:	70 08       	ld.w	r8,r8[0x0]
80005e24:	ed b8 00 04 	bld	r8,0x4
80005e28:	c2 01       	brne	80005e68 <udd_interrupt+0x500>
80005e2a:	fe 68 00 04 	mov	r8,-131068
80005e2e:	70 08       	ld.w	r8,r8[0x0]
80005e30:	ed b8 00 04 	bld	r8,0x4
80005e34:	c1 a1       	brne	80005e68 <udd_interrupt+0x500>
80005e36:	fe 69 08 00 	mov	r9,-129024
80005e3a:	fe 6a 08 04 	mov	r10,-129020
80005e3e:	72 08       	ld.w	r8,r9[0x0]
80005e40:	af c8       	cbr	r8,0xe
80005e42:	93 08       	st.w	r9[0x0],r8
80005e44:	74 08       	ld.w	r8,r10[0x0]
80005e46:	ed b8 00 0e 	bld	r8,0xe
80005e4a:	cf d1       	brne	80005e44 <udd_interrupt+0x4dc>
80005e4c:	fe 69 00 14 	mov	r9,-131052
80005e50:	30 18       	mov	r8,1
80005e52:	31 0a       	mov	r10,16
80005e54:	10 9c       	mov	r12,r8
80005e56:	93 0a       	st.w	r9[0x0],r10
80005e58:	fe 69 00 18 	mov	r9,-131048
80005e5c:	93 08       	st.w	r9[0x0],r8
80005e5e:	fe b0 fb 9d 	rcall	80005598 <udd_sleep_mode>
80005e62:	e0 a0 04 74 	rcall	8000674a <main_resume_action>
80005e66:	c1 88       	rjmp	80005e96 <udd_interrupt+0x52e>
80005e68:	fe 6a 08 04 	mov	r10,-129020
80005e6c:	74 08       	ld.w	r8,r10[0x0]
80005e6e:	ed b8 00 01 	bld	r8,0x1
80005e72:	c1 21       	brne	80005e96 <udd_interrupt+0x52e>
80005e74:	fe 68 08 00 	mov	r8,-129024
80005e78:	70 09       	ld.w	r9,r8[0x0]
80005e7a:	af c9       	cbr	r9,0xe
80005e7c:	91 09       	st.w	r8[0x0],r9
80005e7e:	fe 69 08 08 	mov	r9,-129016
80005e82:	30 2b       	mov	r11,2
80005e84:	93 0b       	st.w	r9[0x0],r11
80005e86:	70 09       	ld.w	r9,r8[0x0]
80005e88:	af a9       	sbr	r9,0xe
80005e8a:	91 09       	st.w	r8[0x0],r9
80005e8c:	74 0c       	ld.w	r12,r10[0x0]
80005e8e:	f9 dc c1 61 	bfextu	r12,r12,0xb,0x1
80005e92:	e0 a0 04 77 	rcall	80006780 <main_vbus_action>
80005e96:	fe 68 00 00 	mov	r8,-131072
80005e9a:	f0 f8 08 18 	ld.w	r8,r8[2072]
80005e9e:	e3 cd 40 fc 	ldm	sp++,r2-r7,lr
80005ea2:	d6 03       	rete
80005ea4:	00 00       	add	r0,r0
80005ea6:	04 20       	rsub	r0,r2
80005ea8:	fe 68 00 04 	mov	r8,-131068
80005eac:	70 0c       	ld.w	r12,r8[0x0]
80005eae:	e2 1c 00 08 	andl	r12,0x8,COH
80005eb2:	fe 91 ff 51 	brne	80005d54 <udd_interrupt+0x3ec>
80005eb6:	c9 5b       	rjmp	80005de0 <udd_interrupt+0x478>

80005eb8 <_stext>:
80005eb8:	48 dd       	lddpc	sp,80005eec <udata_clear_loop_end+0x4>
80005eba:	fe c0 f2 ba 	sub	r0,pc,-3398
80005ebe:	e3 b0 00 01 	mtsr	0x4,r0
80005ec2:	d5 53       	csrf	0x15
80005ec4:	48 b0       	lddpc	r0,80005ef0 <udata_clear_loop_end+0x8>
80005ec6:	48 c1       	lddpc	r1,80005ef4 <udata_clear_loop_end+0xc>
80005ec8:	02 30       	cp.w	r0,r1
80005eca:	c0 62       	brcc	80005ed6 <idata_load_loop_end>
80005ecc:	48 b2       	lddpc	r2,80005ef8 <udata_clear_loop_end+0x10>

80005ece <idata_load_loop>:
80005ece:	a5 05       	ld.d	r4,r2++
80005ed0:	a1 24       	st.d	r0++,r4
80005ed2:	02 30       	cp.w	r0,r1
80005ed4:	cf d3       	brcs	80005ece <idata_load_loop>

80005ed6 <idata_load_loop_end>:
80005ed6:	48 a0       	lddpc	r0,80005efc <udata_clear_loop_end+0x14>
80005ed8:	48 a1       	lddpc	r1,80005f00 <udata_clear_loop_end+0x18>
80005eda:	02 30       	cp.w	r0,r1
80005edc:	c0 62       	brcc	80005ee8 <udata_clear_loop_end>
80005ede:	30 02       	mov	r2,0
80005ee0:	30 03       	mov	r3,0

80005ee2 <udata_clear_loop>:
80005ee2:	a1 22       	st.d	r0++,r2
80005ee4:	02 30       	cp.w	r0,r1
80005ee6:	cf e3       	brcs	80005ee2 <udata_clear_loop>

80005ee8 <udata_clear_loop_end>:
80005ee8:	fe cf f6 2c 	sub	pc,pc,-2516
80005eec:	00 00       	add	r0,r0
80005eee:	80 00       	ld.sh	r0,r0[0x0]
80005ef0:	00 00       	add	r0,r0
80005ef2:	00 08       	add	r8,r0
80005ef4:	00 00       	add	r0,r0
80005ef6:	00 f8       	st.b	--r0,r8
80005ef8:	80 00       	ld.sh	r0,r0[0x0]
80005efa:	70 58       	ld.w	r8,r8[0x14]
80005efc:	00 00       	add	r0,r0
80005efe:	00 f8       	st.b	--r0,r8
80005f00:	00 00       	add	r0,r0
80005f02:	09 b8       	ld.ub	r8,r4[0x3]

80005f04 <osc_enable>:
80005f04:	e1 ba 00 00 	mfsr	r10,0x0
80005f08:	d3 03       	ssrf	0x10
80005f0a:	58 0c       	cp.w	r12,0
80005f0c:	c0 60       	breq	80005f18 <osc_enable+0x14>
80005f0e:	30 28       	mov	r8,2
80005f10:	f0 0c 18 00 	cp.b	r12,r8
80005f14:	c1 01       	brne	80005f34 <osc_enable+0x30>
80005f16:	c0 a8       	rjmp	80005f2a <osc_enable+0x26>
80005f18:	fe 78 0c 00 	mov	r8,-62464
80005f1c:	e0 69 03 07 	mov	r9,775
80005f20:	91 a9       	st.w	r8[0x28],r9
80005f22:	70 09       	ld.w	r9,r8[0x0]
80005f24:	a3 a9       	sbr	r9,0x2
80005f26:	91 09       	st.w	r8[0x0],r9
80005f28:	c0 68       	rjmp	80005f34 <osc_enable+0x30>
80005f2a:	e2 69 01 01 	mov	r9,131329
80005f2e:	fe 78 0c 00 	mov	r8,-62464
80005f32:	91 c9       	st.w	r8[0x30],r9
80005f34:	e3 ba 00 00 	mtsr	0x0,r10
80005f38:	5e fc       	retal	r12

80005f3a <sysclk_priv_enable_module>:
80005f3a:	e1 b9 00 00 	mfsr	r9,0x0
80005f3e:	d3 03       	ssrf	0x10
80005f40:	fe 7a 0c 00 	mov	r10,-62464
80005f44:	75 58       	ld.w	r8,r10[0x54]
80005f46:	ed b8 00 06 	bld	r8,0x6
80005f4a:	cf d1       	brne	80005f44 <sysclk_priv_enable_module+0xa>
80005f4c:	30 18       	mov	r8,1
80005f4e:	a3 6c       	lsl	r12,0x2
80005f50:	f0 0b 09 4b 	lsl	r11,r8,r11
80005f54:	e0 2c f3 f8 	sub	r12,62456
80005f58:	78 08       	ld.w	r8,r12[0x0]
80005f5a:	10 4b       	or	r11,r8
80005f5c:	99 0b       	st.w	r12[0x0],r11
80005f5e:	e3 b9 00 00 	mtsr	0x0,r9
80005f62:	5e fc       	retal	r12

80005f64 <sysclk_enable_pbb_module>:
80005f64:	d4 21       	pushm	r4-r7,lr
80005f66:	18 97       	mov	r7,r12
80005f68:	e1 b6 00 00 	mfsr	r6,0x0
80005f6c:	d3 03       	ssrf	0x10
80005f6e:	48 a8       	lddpc	r8,80005f94 <sysclk_enable_pbb_module+0x30>
80005f70:	11 89       	ld.ub	r9,r8[0x0]
80005f72:	30 08       	mov	r8,0
80005f74:	f0 09 18 00 	cp.b	r9,r8
80005f78:	c0 41       	brne	80005f80 <sysclk_enable_pbb_module+0x1c>
80005f7a:	30 2b       	mov	r11,2
80005f7c:	30 1c       	mov	r12,1
80005f7e:	cd ef       	rcall	80005f3a <sysclk_priv_enable_module>
80005f80:	48 58       	lddpc	r8,80005f94 <sysclk_enable_pbb_module+0x30>
80005f82:	11 89       	ld.ub	r9,r8[0x0]
80005f84:	2f f9       	sub	r9,-1
80005f86:	b0 89       	st.b	r8[0x0],r9
80005f88:	e3 b6 00 00 	mtsr	0x0,r6
80005f8c:	30 3c       	mov	r12,3
80005f8e:	0e 9b       	mov	r11,r7
80005f90:	cd 5f       	rcall	80005f3a <sysclk_priv_enable_module>
80005f92:	d8 22       	popm	r4-r7,pc
80005f94:	00 00       	add	r0,r0
80005f96:	04 50       	eor	r0,r2

80005f98 <T.64>:
80005f98:	d4 21       	pushm	r4-r7,lr
80005f9a:	fe 77 0c 00 	mov	r7,-62464
80005f9e:	6f 5c       	ld.w	r12,r7[0x54]
80005fa0:	e2 1c 00 80 	andl	r12,0x80,COH
80005fa4:	c0 61       	brne	80005fb0 <T.64+0x18>
80005fa6:	ca ff       	rcall	80005f04 <osc_enable>
80005fa8:	6f 58       	ld.w	r8,r7[0x54]
80005faa:	ed b8 00 07 	bld	r8,0x7
80005fae:	cf d1       	brne	80005fa8 <T.64+0x10>
80005fb0:	d8 22       	popm	r4-r7,pc
80005fb2:	d7 03       	nop

80005fb4 <pll_enable_config_defaults>:
80005fb4:	d4 21       	pushm	r4-r7,lr
80005fb6:	fe 79 0c 00 	mov	r9,-62464
80005fba:	73 59       	ld.w	r9,r9[0x54]
80005fbc:	30 16       	mov	r6,1
80005fbe:	18 97       	mov	r7,r12
80005fc0:	ec 0c 09 46 	lsl	r6,r6,r12
80005fc4:	ed e9 00 09 	and	r9,r6,r9
80005fc8:	c1 b1       	brne	80005ffe <pll_enable_config_defaults+0x4a>
80005fca:	58 0c       	cp.w	r12,0
80005fcc:	c0 40       	breq	80005fd4 <pll_enable_config_defaults+0x20>
80005fce:	58 1c       	cp.w	r12,1
80005fd0:	c0 d1       	brne	80005fea <pll_enable_config_defaults+0x36>
80005fd2:	c0 78       	rjmp	80005fe0 <pll_enable_config_defaults+0x2c>
80005fd4:	ce 2f       	rcall	80005f98 <T.64>
80005fd6:	e0 68 01 0c 	mov	r8,268
80005fda:	ea 18 3f 09 	orh	r8,0x3f09
80005fde:	c0 68       	rjmp	80005fea <pll_enable_config_defaults+0x36>
80005fe0:	cd cf       	rcall	80005f98 <T.64>
80005fe2:	e0 68 01 0c 	mov	r8,268
80005fe6:	ea 18 3f 07 	orh	r8,0x3f07
80005fea:	a1 a8       	sbr	r8,0x0
80005fec:	2f 87       	sub	r7,-8
80005fee:	fe 79 0c 00 	mov	r9,-62464
80005ff2:	f2 07 09 28 	st.w	r9[r7<<0x2],r8
80005ff6:	73 58       	ld.w	r8,r9[0x54]
80005ff8:	ed e8 00 08 	and	r8,r6,r8
80005ffc:	cf d0       	breq	80005ff6 <pll_enable_config_defaults+0x42>
80005ffe:	d8 22       	popm	r4-r7,pc

80006000 <sysclk_init>:
80006000:	d4 01       	pushm	lr
80006002:	30 0c       	mov	r12,0
80006004:	cd 8f       	rcall	80005fb4 <pll_enable_config_defaults>
80006006:	e0 6c 87 00 	mov	r12,34560
8000600a:	ea 1c 03 93 	orh	r12,0x393
8000600e:	fe b0 f6 87 	rcall	80004d1c <flashc_set_bus_freq>
80006012:	e1 ba 00 00 	mfsr	r10,0x0
80006016:	d3 03       	ssrf	0x10
80006018:	fe 79 0c 00 	mov	r9,-62464
8000601c:	72 08       	ld.w	r8,r9[0x0]
8000601e:	e0 18 ff fc 	andl	r8,0xfffc
80006022:	a1 b8       	sbr	r8,0x1
80006024:	93 08       	st.w	r9[0x0],r8
80006026:	e3 ba 00 00 	mtsr	0x0,r10
8000602a:	d8 02       	popm	pc

8000602c <sysclk_enable_usb>:
8000602c:	d4 01       	pushm	lr
8000602e:	30 1c       	mov	r12,1
80006030:	c9 af       	rcall	80005f64 <sysclk_enable_pbb_module>
80006032:	30 3b       	mov	r11,3
80006034:	30 1c       	mov	r12,1
80006036:	c8 2f       	rcall	80005f3a <sysclk_priv_enable_module>
80006038:	30 1c       	mov	r12,1
8000603a:	cb df       	rcall	80005fb4 <pll_enable_config_defaults>
8000603c:	30 79       	mov	r9,7
8000603e:	fe 78 0c 00 	mov	r8,-62464
80006042:	f1 49 00 6c 	st.w	r8[108],r9
80006046:	d8 02       	popm	pc

80006048 <get_nb_lun>:
80006048:	5e ff       	retal	1
8000604a:	d7 03       	nop

8000604c <mem_test_unit_ready>:
8000604c:	d4 01       	pushm	lr
8000604e:	58 0c       	cp.w	r12,0
80006050:	c0 20       	breq	80006054 <mem_test_unit_ready+0x8>
80006052:	da 0a       	popm	pc,r12=1
80006054:	48 28       	lddpc	r8,8000605c <mem_test_unit_ready+0x10>
80006056:	70 0c       	ld.w	r12,r8[0x0]
80006058:	5d 1c       	icall	r12
8000605a:	d8 02       	popm	pc
8000605c:	80 00       	ld.sh	r0,r0[0x0]
8000605e:	6e e8       	ld.w	r8,r7[0x38]

80006060 <mem_read_capacity>:
80006060:	d4 01       	pushm	lr
80006062:	58 0c       	cp.w	r12,0
80006064:	c0 20       	breq	80006068 <mem_read_capacity+0x8>
80006066:	da 0a       	popm	pc,r12=1
80006068:	16 9c       	mov	r12,r11
8000606a:	48 38       	lddpc	r8,80006074 <mem_read_capacity+0x14>
8000606c:	70 18       	ld.w	r8,r8[0x4]
8000606e:	5d 18       	icall	r8
80006070:	d8 02       	popm	pc
80006072:	d7 03       	nop
80006074:	80 00       	ld.sh	r0,r0[0x0]
80006076:	6e e8       	ld.w	r8,r7[0x38]

80006078 <mem_sector_size>:
80006078:	58 0c       	cp.w	r12,0
8000607a:	5f 0c       	sreq	r12
8000607c:	5e fc       	retal	r12
8000607e:	d7 03       	nop

80006080 <mem_wr_protect>:
80006080:	d4 01       	pushm	lr
80006082:	58 0c       	cp.w	r12,0
80006084:	c0 20       	breq	80006088 <mem_wr_protect+0x8>
80006086:	da 0a       	popm	pc,r12=1
80006088:	48 28       	lddpc	r8,80006090 <mem_wr_protect+0x10>
8000608a:	70 2c       	ld.w	r12,r8[0x8]
8000608c:	5d 1c       	icall	r12
8000608e:	d8 02       	popm	pc
80006090:	80 00       	ld.sh	r0,r0[0x0]
80006092:	6e e8       	ld.w	r8,r7[0x38]

80006094 <mem_name>:
80006094:	58 0c       	cp.w	r12,0
80006096:	c0 20       	breq	8000609a <mem_name+0x6>
80006098:	5e fd       	retal	0
8000609a:	48 28       	lddpc	r8,800060a0 <mem_name+0xc>
8000609c:	70 8c       	ld.w	r12,r8[0x20]
8000609e:	5e fc       	retal	r12
800060a0:	80 00       	ld.sh	r0,r0[0x0]
800060a2:	6e e8       	ld.w	r8,r7[0x38]

800060a4 <ram_2_memory>:
800060a4:	d4 21       	pushm	r4-r7,lr
800060a6:	20 1d       	sub	sp,4
800060a8:	18 96       	mov	r6,r12
800060aa:	16 97       	mov	r7,r11
800060ac:	14 95       	mov	r5,r10
800060ae:	fe b0 f5 33 	rcall	80004b14 <ui_start_write>
800060b2:	58 06       	cp.w	r6,0
800060b4:	c0 30       	breq	800060ba <ram_2_memory+0x16>
800060b6:	30 1c       	mov	r12,1
800060b8:	c0 68       	rjmp	800060c4 <ram_2_memory+0x20>
800060ba:	48 68       	lddpc	r8,800060d0 <ram_2_memory+0x2c>
800060bc:	0a 9b       	mov	r11,r5
800060be:	0e 9c       	mov	r12,r7
800060c0:	70 78       	ld.w	r8,r8[0x1c]
800060c2:	5d 18       	icall	r8
800060c4:	50 0c       	stdsp	sp[0x0],r12
800060c6:	fe b0 f5 19 	rcall	80004af8 <ui_stop_write>
800060ca:	40 0c       	lddsp	r12,sp[0x0]
800060cc:	2f fd       	sub	sp,-4
800060ce:	d8 22       	popm	r4-r7,pc
800060d0:	80 00       	ld.sh	r0,r0[0x0]
800060d2:	6e e8       	ld.w	r8,r7[0x38]

800060d4 <usb_2_memory>:
800060d4:	d4 21       	pushm	r4-r7,lr
800060d6:	20 1d       	sub	sp,4
800060d8:	18 96       	mov	r6,r12
800060da:	16 97       	mov	r7,r11
800060dc:	14 95       	mov	r5,r10
800060de:	fe b0 f5 1b 	rcall	80004b14 <ui_start_write>
800060e2:	58 06       	cp.w	r6,0
800060e4:	c0 30       	breq	800060ea <usb_2_memory+0x16>
800060e6:	30 1c       	mov	r12,1
800060e8:	c0 78       	rjmp	800060f6 <usb_2_memory+0x22>
800060ea:	48 78       	lddpc	r8,80006104 <usb_2_memory+0x30>
800060ec:	f7 d5 c0 10 	bfextu	r11,r5,0x0,0x10
800060f0:	0e 9c       	mov	r12,r7
800060f2:	70 58       	ld.w	r8,r8[0x14]
800060f4:	5d 18       	icall	r8
800060f6:	50 0c       	stdsp	sp[0x0],r12
800060f8:	fe b0 f5 00 	rcall	80004af8 <ui_stop_write>
800060fc:	40 0c       	lddsp	r12,sp[0x0]
800060fe:	2f fd       	sub	sp,-4
80006100:	d8 22       	popm	r4-r7,pc
80006102:	d7 03       	nop
80006104:	80 00       	ld.sh	r0,r0[0x0]
80006106:	6e e8       	ld.w	r8,r7[0x38]

80006108 <memory_2_ram>:
80006108:	d4 21       	pushm	r4-r7,lr
8000610a:	20 1d       	sub	sp,4
8000610c:	18 96       	mov	r6,r12
8000610e:	16 97       	mov	r7,r11
80006110:	14 95       	mov	r5,r10
80006112:	fe b0 f5 09 	rcall	80004b24 <ui_start_read>
80006116:	58 06       	cp.w	r6,0
80006118:	c0 30       	breq	8000611e <memory_2_ram+0x16>
8000611a:	30 1c       	mov	r12,1
8000611c:	c0 68       	rjmp	80006128 <memory_2_ram+0x20>
8000611e:	48 68       	lddpc	r8,80006134 <memory_2_ram+0x2c>
80006120:	0a 9b       	mov	r11,r5
80006122:	0e 9c       	mov	r12,r7
80006124:	70 68       	ld.w	r8,r8[0x18]
80006126:	5d 18       	icall	r8
80006128:	50 0c       	stdsp	sp[0x0],r12
8000612a:	fe b0 f4 ef 	rcall	80004b08 <ui_stop_read>
8000612e:	40 0c       	lddsp	r12,sp[0x0]
80006130:	2f fd       	sub	sp,-4
80006132:	d8 22       	popm	r4-r7,pc
80006134:	80 00       	ld.sh	r0,r0[0x0]
80006136:	6e e8       	ld.w	r8,r7[0x38]

80006138 <memory_2_usb>:
80006138:	d4 21       	pushm	r4-r7,lr
8000613a:	20 1d       	sub	sp,4
8000613c:	18 96       	mov	r6,r12
8000613e:	16 97       	mov	r7,r11
80006140:	14 95       	mov	r5,r10
80006142:	fe b0 f4 f1 	rcall	80004b24 <ui_start_read>
80006146:	58 06       	cp.w	r6,0
80006148:	c0 30       	breq	8000614e <memory_2_usb+0x16>
8000614a:	30 1c       	mov	r12,1
8000614c:	c0 78       	rjmp	8000615a <memory_2_usb+0x22>
8000614e:	48 78       	lddpc	r8,80006168 <memory_2_usb+0x30>
80006150:	f7 d5 c0 10 	bfextu	r11,r5,0x0,0x10
80006154:	0e 9c       	mov	r12,r7
80006156:	70 48       	ld.w	r8,r8[0x10]
80006158:	5d 18       	icall	r8
8000615a:	50 0c       	stdsp	sp[0x0],r12
8000615c:	fe b0 f4 d6 	rcall	80004b08 <ui_stop_read>
80006160:	40 0c       	lddsp	r12,sp[0x0]
80006162:	2f fd       	sub	sp,-4
80006164:	d8 22       	popm	r4-r7,pc
80006166:	d7 03       	nop
80006168:	80 00       	ld.sh	r0,r0[0x0]
8000616a:	6e e8       	ld.w	r8,r7[0x38]

8000616c <udc_update_iface_desc>:
8000616c:	d4 01       	pushm	lr
8000616e:	49 c8       	lddpc	r8,800061dc <udc_update_iface_desc+0x70>
80006170:	11 89       	ld.ub	r9,r8[0x0]
80006172:	30 08       	mov	r8,0
80006174:	f0 09 18 00 	cp.b	r9,r8
80006178:	c3 10       	breq	800061da <udc_update_iface_desc+0x6e>
8000617a:	49 a8       	lddpc	r8,800061e0 <udc_update_iface_desc+0x74>
8000617c:	70 08       	ld.w	r8,r8[0x0]
8000617e:	70 08       	ld.w	r8,r8[0x0]
80006180:	11 c9       	ld.ub	r9,r8[0x4]
80006182:	f8 09 18 00 	cp.b	r9,r12
80006186:	e0 88 00 2a 	brls	800061da <udc_update_iface_desc+0x6e>
8000618a:	49 79       	lddpc	r9,800061e4 <udc_update_iface_desc+0x78>
8000618c:	93 08       	st.w	r9[0x0],r8
8000618e:	11 aa       	ld.ub	r10,r8[0x2]
80006190:	11 b9       	ld.ub	r9,r8[0x3]
80006192:	30 4e       	mov	lr,4
80006194:	f3 ea 10 89 	or	r9,r9,r10<<0x8
80006198:	f2 0a 16 08 	lsr	r10,r9,0x8
8000619c:	f5 e9 10 89 	or	r9,r10,r9<<0x8
800061a0:	5c 79       	castu.h	r9
800061a2:	f0 09 00 09 	add	r9,r8,r9
800061a6:	c1 38       	rjmp	800061cc <udc_update_iface_desc+0x60>
800061a8:	11 9a       	ld.ub	r10,r8[0x1]
800061aa:	fc 0a 18 00 	cp.b	r10,lr
800061ae:	c0 d1       	brne	800061c8 <udc_update_iface_desc+0x5c>
800061b0:	11 aa       	ld.ub	r10,r8[0x2]
800061b2:	f8 0a 18 00 	cp.b	r10,r12
800061b6:	c0 91       	brne	800061c8 <udc_update_iface_desc+0x5c>
800061b8:	11 ba       	ld.ub	r10,r8[0x3]
800061ba:	f6 0a 18 00 	cp.b	r10,r11
800061be:	c0 51       	brne	800061c8 <udc_update_iface_desc+0x5c>
800061c0:	48 99       	lddpc	r9,800061e4 <udc_update_iface_desc+0x78>
800061c2:	30 1c       	mov	r12,1
800061c4:	93 08       	st.w	r9[0x0],r8
800061c6:	d8 02       	popm	pc
800061c8:	11 8a       	ld.ub	r10,r8[0x0]
800061ca:	14 08       	add	r8,r10
800061cc:	10 39       	cp.w	r9,r8
800061ce:	fe 9b ff ed 	brhi	800061a8 <udc_update_iface_desc+0x3c>
800061d2:	48 59       	lddpc	r9,800061e4 <udc_update_iface_desc+0x78>
800061d4:	30 0c       	mov	r12,0
800061d6:	93 08       	st.w	r9[0x0],r8
800061d8:	d8 02       	popm	pc
800061da:	d8 0a       	popm	pc,r12=0
800061dc:	00 00       	add	r0,r0
800061de:	04 5e       	eor	lr,r2
800061e0:	00 00       	add	r0,r0
800061e2:	04 58       	eor	r8,r2
800061e4:	00 00       	add	r0,r0
800061e6:	04 60       	and	r0,r2

800061e8 <udc_sof_notify>:
800061e8:	d4 21       	pushm	r4-r7,lr
800061ea:	48 e8       	lddpc	r8,80006220 <udc_sof_notify+0x38>
800061ec:	11 89       	ld.ub	r9,r8[0x0]
800061ee:	30 08       	mov	r8,0
800061f0:	f0 09 18 00 	cp.b	r9,r8
800061f4:	c1 40       	breq	8000621c <udc_sof_notify+0x34>
800061f6:	30 07       	mov	r7,0
800061f8:	48 b6       	lddpc	r6,80006224 <udc_sof_notify+0x3c>
800061fa:	c0 a8       	rjmp	8000620e <udc_sof_notify+0x26>
800061fc:	70 18       	ld.w	r8,r8[0x4]
800061fe:	f0 07 03 28 	ld.w	r8,r8[r7<<0x2]
80006202:	70 48       	ld.w	r8,r8[0x10]
80006204:	58 08       	cp.w	r8,0
80006206:	c0 20       	breq	8000620a <udc_sof_notify+0x22>
80006208:	5d 18       	icall	r8
8000620a:	2f f7       	sub	r7,-1
8000620c:	5c 57       	castu.b	r7
8000620e:	6c 08       	ld.w	r8,r6[0x0]
80006210:	70 09       	ld.w	r9,r8[0x0]
80006212:	13 c9       	ld.ub	r9,r9[0x4]
80006214:	ee 09 18 00 	cp.b	r9,r7
80006218:	fe 9b ff f2 	brhi	800061fc <udc_sof_notify+0x14>
8000621c:	d8 22       	popm	r4-r7,pc
8000621e:	d7 03       	nop
80006220:	00 00       	add	r0,r0
80006222:	04 5e       	eor	lr,r2
80006224:	00 00       	add	r0,r0
80006226:	04 58       	eor	r8,r2

80006228 <udc_valid_address>:
80006228:	d4 01       	pushm	lr
8000622a:	48 48       	lddpc	r8,80006238 <udc_valid_address+0x10>
8000622c:	11 bc       	ld.ub	r12,r8[0x3]
8000622e:	f9 dc c0 07 	bfextu	r12,r12,0x0,0x7
80006232:	fe b0 f7 90 	rcall	80005152 <udd_set_address>
80006236:	d8 02       	popm	pc
80006238:	00 00       	add	r0,r0
8000623a:	09 94       	ld.ub	r4,r4[0x1]

8000623c <udc_iface_enable>:
8000623c:	d4 31       	pushm	r0-r7,lr
8000623e:	18 96       	mov	r6,r12
80006240:	c9 6f       	rcall	8000616c <udc_update_iface_desc>
80006242:	c3 c0       	breq	800062ba <udc_iface_enable+0x7e>
80006244:	49 e8       	lddpc	r8,800062bc <udc_iface_enable+0x80>
80006246:	49 f3       	lddpc	r3,800062c0 <udc_iface_enable+0x84>
80006248:	70 07       	ld.w	r7,r8[0x0]
8000624a:	30 44       	mov	r4,4
8000624c:	30 55       	mov	r5,5
8000624e:	66 0a       	ld.w	r10,r3[0x0]
80006250:	74 08       	ld.w	r8,r10[0x0]
80006252:	11 ac       	ld.ub	r12,r8[0x2]
80006254:	11 bb       	ld.ub	r11,r8[0x3]
80006256:	0f 89       	ld.ub	r9,r7[0x0]
80006258:	f7 ec 10 8b 	or	r11,r11,r12<<0x8
8000625c:	ee 09 00 09 	add	r9,r7,r9
80006260:	f6 0c 16 08 	lsr	r12,r11,0x8
80006264:	f9 eb 10 8b 	or	r11,r12,r11<<0x8
80006268:	5c 7b       	castu.h	r11
8000626a:	16 08       	add	r8,r11
8000626c:	c0 a8       	rjmp	80006280 <udc_iface_enable+0x44>
8000626e:	13 9c       	ld.ub	r12,r9[0x1]
80006270:	e8 0c 18 00 	cp.b	r12,r4
80006274:	c0 90       	breq	80006286 <udc_iface_enable+0x4a>
80006276:	ea 0c 18 00 	cp.b	r12,r5
8000627a:	c0 70       	breq	80006288 <udc_iface_enable+0x4c>
8000627c:	13 8b       	ld.ub	r11,r9[0x0]
8000627e:	16 09       	add	r9,r11
80006280:	12 38       	cp.w	r8,r9
80006282:	fe 9b ff f6 	brhi	8000626e <udc_iface_enable+0x32>
80006286:	30 09       	mov	r9,0
80006288:	12 97       	mov	r7,r9
8000628a:	58 09       	cp.w	r9,0
8000628c:	c1 10       	breq	800062ae <udc_iface_enable+0x72>
8000628e:	13 ca       	ld.ub	r10,r9[0x4]
80006290:	13 d8       	ld.ub	r8,r9[0x5]
80006292:	13 ac       	ld.ub	r12,r9[0x2]
80006294:	f1 ea 10 88 	or	r8,r8,r10<<0x8
80006298:	13 bb       	ld.ub	r11,r9[0x3]
8000629a:	f0 09 16 08 	lsr	r9,r8,0x8
8000629e:	f3 e8 10 88 	or	r8,r9,r8<<0x8
800062a2:	f5 d8 c0 10 	bfextu	r10,r8,0x0,0x10
800062a6:	fe b0 fa 73 	rcall	8000578c <udd_ep_alloc>
800062aa:	cd 21       	brne	8000624e <udc_iface_enable+0x12>
800062ac:	c0 78       	rjmp	800062ba <udc_iface_enable+0x7e>
800062ae:	74 18       	ld.w	r8,r10[0x4]
800062b0:	f0 06 03 28 	ld.w	r8,r8[r6<<0x2]
800062b4:	70 0c       	ld.w	r12,r8[0x0]
800062b6:	5d 1c       	icall	r12
800062b8:	d8 32       	popm	r0-r7,pc
800062ba:	d8 3a       	popm	r0-r7,pc,r12=0
800062bc:	00 00       	add	r0,r0
800062be:	04 60       	and	r0,r2
800062c0:	00 00       	add	r0,r0
800062c2:	04 58       	eor	r8,r2

800062c4 <udc_iface_disable>:
800062c4:	d4 31       	pushm	r0-r7,lr
800062c6:	30 0b       	mov	r11,0
800062c8:	18 95       	mov	r5,r12
800062ca:	c5 1f       	rcall	8000616c <udc_update_iface_desc>
800062cc:	c3 70       	breq	8000633a <udc_iface_disable+0x76>
800062ce:	49 c6       	lddpc	r6,8000633c <udc_iface_disable+0x78>
800062d0:	6c 08       	ld.w	r8,r6[0x0]
800062d2:	70 18       	ld.w	r8,r8[0x4]
800062d4:	f0 05 03 27 	ld.w	r7,r8[r5<<0x2]
800062d8:	6e 3c       	ld.w	r12,r7[0xc]
800062da:	5d 1c       	icall	r12
800062dc:	18 9b       	mov	r11,r12
800062de:	0a 9c       	mov	r12,r5
800062e0:	c4 6f       	rcall	8000616c <udc_update_iface_desc>
800062e2:	c2 c0       	breq	8000633a <udc_iface_disable+0x76>
800062e4:	49 78       	lddpc	r8,80006340 <udc_iface_disable+0x7c>
800062e6:	30 43       	mov	r3,4
800062e8:	70 05       	ld.w	r5,r8[0x0]
800062ea:	30 54       	mov	r4,5
800062ec:	6c 08       	ld.w	r8,r6[0x0]
800062ee:	70 09       	ld.w	r9,r8[0x0]
800062f0:	13 ab       	ld.ub	r11,r9[0x2]
800062f2:	13 ba       	ld.ub	r10,r9[0x3]
800062f4:	0b 88       	ld.ub	r8,r5[0x0]
800062f6:	f5 eb 10 8a 	or	r10,r10,r11<<0x8
800062fa:	ea 08 00 08 	add	r8,r5,r8
800062fe:	f4 0b 16 08 	lsr	r11,r10,0x8
80006302:	f7 ea 10 8a 	or	r10,r11,r10<<0x8
80006306:	5c 7a       	castu.h	r10
80006308:	14 09       	add	r9,r10
8000630a:	c0 a8       	rjmp	8000631e <udc_iface_disable+0x5a>
8000630c:	11 9b       	ld.ub	r11,r8[0x1]
8000630e:	e6 0b 18 00 	cp.b	r11,r3
80006312:	c0 90       	breq	80006324 <udc_iface_disable+0x60>
80006314:	e8 0b 18 00 	cp.b	r11,r4
80006318:	c0 70       	breq	80006326 <udc_iface_disable+0x62>
8000631a:	11 8a       	ld.ub	r10,r8[0x0]
8000631c:	14 08       	add	r8,r10
8000631e:	10 39       	cp.w	r9,r8
80006320:	fe 9b ff f6 	brhi	8000630c <udc_iface_disable+0x48>
80006324:	30 08       	mov	r8,0
80006326:	10 95       	mov	r5,r8
80006328:	58 08       	cp.w	r8,0
8000632a:	c0 50       	breq	80006334 <udc_iface_disable+0x70>
8000632c:	11 ac       	ld.ub	r12,r8[0x2]
8000632e:	fe b0 f8 13 	rcall	80005354 <udd_ep_free>
80006332:	cd db       	rjmp	800062ec <udc_iface_disable+0x28>
80006334:	6e 18       	ld.w	r8,r7[0x4]
80006336:	5d 18       	icall	r8
80006338:	da 3a       	popm	r0-r7,pc,r12=1
8000633a:	d8 3a       	popm	r0-r7,pc,r12=0
8000633c:	00 00       	add	r0,r0
8000633e:	04 58       	eor	r8,r2
80006340:	00 00       	add	r0,r0
80006342:	04 60       	and	r0,r2

80006344 <udc_reset>:
80006344:	d4 21       	pushm	r4-r7,lr
80006346:	48 e8       	lddpc	r8,8000637c <udc_reset+0x38>
80006348:	11 89       	ld.ub	r9,r8[0x0]
8000634a:	30 08       	mov	r8,0
8000634c:	f0 09 18 00 	cp.b	r9,r8
80006350:	c0 f0       	breq	8000636e <udc_reset+0x2a>
80006352:	30 07       	mov	r7,0
80006354:	48 b6       	lddpc	r6,80006380 <udc_reset+0x3c>
80006356:	c0 58       	rjmp	80006360 <udc_reset+0x1c>
80006358:	0e 9c       	mov	r12,r7
8000635a:	cb 5f       	rcall	800062c4 <udc_iface_disable>
8000635c:	2f f7       	sub	r7,-1
8000635e:	5c 57       	castu.b	r7
80006360:	6c 08       	ld.w	r8,r6[0x0]
80006362:	70 08       	ld.w	r8,r8[0x0]
80006364:	11 c8       	ld.ub	r8,r8[0x4]
80006366:	ee 08 18 00 	cp.b	r8,r7
8000636a:	fe 9b ff f7 	brhi	80006358 <udc_reset+0x14>
8000636e:	30 09       	mov	r9,0
80006370:	48 38       	lddpc	r8,8000637c <udc_reset+0x38>
80006372:	b0 89       	st.b	r8[0x0],r9
80006374:	30 09       	mov	r9,0
80006376:	48 48       	lddpc	r8,80006384 <udc_reset+0x40>
80006378:	b0 09       	st.h	r8[0x0],r9
8000637a:	d8 22       	popm	r4-r7,pc
8000637c:	00 00       	add	r0,r0
8000637e:	04 5e       	eor	lr,r2
80006380:	00 00       	add	r0,r0
80006382:	04 58       	eor	r8,r2
80006384:	00 00       	add	r0,r0
80006386:	04 5c       	eor	r12,r2

80006388 <udc_process_setup>:
80006388:	d4 21       	pushm	r4-r7,lr
8000638a:	4c 38       	lddpc	r8,80006494 <udc_process_setup+0x10c>
8000638c:	30 0a       	mov	r10,0
8000638e:	30 09       	mov	r9,0
80006390:	91 5a       	st.w	r8[0x14],r10
80006392:	b0 69       	st.h	r8[0xc],r9
80006394:	91 4a       	st.w	r8[0x10],r10
80006396:	11 86       	ld.ub	r6,r8[0x0]
80006398:	f2 06 18 00 	cp.b	r6,r9
8000639c:	c0 64       	brge	800063a8 <udc_process_setup+0x20>
8000639e:	90 38       	ld.sh	r8,r8[0x6]
800063a0:	f2 08 19 00 	cp.h	r8,r9
800063a4:	e0 80 01 c6 	breq	80006730 <udc_process_setup+0x3a8>
800063a8:	0c 9b       	mov	r11,r6
800063aa:	e2 1b 00 60 	andl	r11,0x60,COH
800063ae:	e0 81 01 9a 	brne	800066e2 <udc_process_setup+0x35a>
800063b2:	16 98       	mov	r8,r11
800063b4:	f6 06 18 00 	cp.b	r6,r11
800063b8:	e0 84 00 e2 	brge	8000657c <udc_process_setup+0x1f4>
800063bc:	4b 67       	lddpc	r7,80006494 <udc_process_setup+0x10c>
800063be:	8e 39       	ld.sh	r9,r7[0x6]
800063c0:	58 09       	cp.w	r9,0
800063c2:	e0 80 01 90 	breq	800066e2 <udc_process_setup+0x35a>
800063c6:	ed d6 c0 05 	bfextu	r6,r6,0x0,0x5
800063ca:	e0 81 00 96 	brne	800064f6 <udc_process_setup+0x16e>
800063ce:	0f 9a       	ld.ub	r10,r7[0x1]
800063d0:	30 6b       	mov	r11,6
800063d2:	f6 0a 18 00 	cp.b	r10,r11
800063d6:	c1 20       	breq	800063fa <udc_process_setup+0x72>
800063d8:	30 8b       	mov	r11,8
800063da:	f6 0a 18 00 	cp.b	r10,r11
800063de:	e0 80 00 84 	breq	800064e6 <udc_process_setup+0x15e>
800063e2:	f0 0a 18 00 	cp.b	r10,r8
800063e6:	e0 81 01 7e 	brne	800066e2 <udc_process_setup+0x35a>
800063ea:	30 28       	mov	r8,2
800063ec:	f0 09 19 00 	cp.h	r9,r8
800063f0:	e0 81 01 79 	brne	800066e2 <udc_process_setup+0x35a>
800063f4:	30 2b       	mov	r11,2
800063f6:	4a 9c       	lddpc	r12,80006498 <udc_process_setup+0x110>
800063f8:	ca 78       	rjmp	80006546 <udc_process_setup+0x1be>
800063fa:	8e 1a       	ld.sh	r10,r7[0x2]
800063fc:	30 2b       	mov	r11,2
800063fe:	f1 da c0 10 	bfextu	r8,r10,0x0,0x10
80006402:	f0 06 16 08 	lsr	r6,r8,0x8
80006406:	f6 06 18 00 	cp.b	r6,r11
8000640a:	c0 f0       	breq	80006428 <udc_process_setup+0xa0>
8000640c:	30 3a       	mov	r10,3
8000640e:	f4 06 18 00 	cp.b	r6,r10
80006412:	c2 80       	breq	80006462 <udc_process_setup+0xda>
80006414:	30 18       	mov	r8,1
80006416:	f0 06 18 00 	cp.b	r6,r8
8000641a:	e0 81 01 64 	brne	800066e2 <udc_process_setup+0x35a>
8000641e:	4a 08       	lddpc	r8,8000649c <udc_process_setup+0x114>
80006420:	70 08       	ld.w	r8,r8[0x0]
80006422:	10 9c       	mov	r12,r8
80006424:	11 8b       	ld.ub	r11,r8[0x0]
80006426:	c5 58       	rjmp	800064d0 <udc_process_setup+0x148>
80006428:	f1 da c0 08 	bfextu	r8,r10,0x0,0x8
8000642c:	49 c9       	lddpc	r9,8000649c <udc_process_setup+0x114>
8000642e:	72 0a       	ld.w	r10,r9[0x0]
80006430:	f5 3a 00 11 	ld.ub	r10,r10[17]
80006434:	f0 0a 18 00 	cp.b	r10,r8
80006438:	e0 88 01 55 	brls	800066e2 <udc_process_setup+0x35a>
8000643c:	72 19       	ld.w	r9,r9[0x4]
8000643e:	f2 08 03 38 	ld.w	r8,r9[r8<<0x3]
80006442:	11 a9       	ld.ub	r9,r8[0x2]
80006444:	10 9c       	mov	r12,r8
80006446:	11 b8       	ld.ub	r8,r8[0x3]
80006448:	f1 e9 10 88 	or	r8,r8,r9<<0x8
8000644c:	f0 09 16 08 	lsr	r9,r8,0x8
80006450:	f3 e8 10 88 	or	r8,r9,r8<<0x8
80006454:	f7 d8 c0 10 	bfextu	r11,r8,0x0,0x10
80006458:	fe b0 f6 9a 	rcall	8000518c <udd_set_setup_payload>
8000645c:	6e 28       	ld.w	r8,r7[0x8]
8000645e:	b0 96       	st.b	r8[0x1],r6
80006460:	c3 a8       	rjmp	800064d4 <udc_process_setup+0x14c>
80006462:	f1 d8 c0 08 	bfextu	r8,r8,0x0,0x8
80006466:	58 18       	cp.w	r8,1
80006468:	c0 f0       	breq	80006486 <udc_process_setup+0xfe>
8000646a:	e0 89 00 05 	brgt	80006474 <udc_process_setup+0xec>
8000646e:	58 08       	cp.w	r8,0
80006470:	c0 e0       	breq	8000648c <udc_process_setup+0x104>
80006472:	c3 89       	rjmp	800066e2 <udc_process_setup+0x35a>
80006474:	58 28       	cp.w	r8,2
80006476:	c0 50       	breq	80006480 <udc_process_setup+0xf8>
80006478:	58 38       	cp.w	r8,3
8000647a:	e0 81 01 34 	brne	800066e2 <udc_process_setup+0x35a>
8000647e:	c1 78       	rjmp	800064ac <udc_process_setup+0x124>
80006480:	31 28       	mov	r8,18
80006482:	48 89       	lddpc	r9,800064a0 <udc_process_setup+0x118>
80006484:	c1 68       	rjmp	800064b0 <udc_process_setup+0x128>
80006486:	30 b8       	mov	r8,11
80006488:	48 79       	lddpc	r9,800064a4 <udc_process_setup+0x11c>
8000648a:	c1 38       	rjmp	800064b0 <udc_process_setup+0x128>
8000648c:	30 4b       	mov	r11,4
8000648e:	48 7c       	lddpc	r12,800064a8 <udc_process_setup+0x120>
80006490:	c2 08       	rjmp	800064d0 <udc_process_setup+0x148>
80006492:	d7 03       	nop
80006494:	00 00       	add	r0,r0
80006496:	09 94       	ld.ub	r4,r4[0x1]
80006498:	00 00       	add	r0,r0
8000649a:	04 5c       	eor	r12,r2
8000649c:	00 00       	add	r0,r0
8000649e:	00 14       	sub	r4,r0
800064a0:	00 00       	add	r0,r0
800064a2:	00 a4       	st.w	r0++,r4
800064a4:	00 00       	add	r0,r0
800064a6:	00 b8       	st.h	r0++,r8
800064a8:	00 00       	add	r0,r0
800064aa:	00 ec       	st.h	--r0,r12
800064ac:	30 c8       	mov	r8,12
800064ae:	4c b9       	lddpc	r9,800065d8 <udc_process_setup+0x250>
800064b0:	4c bb       	lddpc	r11,800065dc <udc_process_setup+0x254>
800064b2:	12 9a       	mov	r10,r9
800064b4:	2f eb       	sub	r11,-2
800064b6:	15 3c       	ld.ub	r12,r10++
800064b8:	a9 6c       	lsl	r12,0x8
800064ba:	16 bc       	st.h	r11++,r12
800064bc:	f4 09 01 0c 	sub	r12,r10,r9
800064c0:	f0 0c 18 00 	cp.b	r12,r8
800064c4:	cf 93       	brcs	800064b6 <udc_process_setup+0x12e>
800064c6:	2f f8       	sub	r8,-1
800064c8:	4c 5c       	lddpc	r12,800065dc <udc_process_setup+0x254>
800064ca:	a1 78       	lsl	r8,0x1
800064cc:	10 9b       	mov	r11,r8
800064ce:	b8 88       	st.b	r12[0x0],r8
800064d0:	fe b0 f6 5e 	rcall	8000518c <udd_set_setup_payload>
800064d4:	4c 38       	lddpc	r8,800065e0 <udc_process_setup+0x258>
800064d6:	90 39       	ld.sh	r9,r8[0x6]
800064d8:	90 6a       	ld.sh	r10,r8[0xc]
800064da:	f2 0a 19 00 	cp.h	r10,r9
800064de:	e0 88 01 2a 	brls	80006732 <udc_process_setup+0x3aa>
800064e2:	b0 69       	st.h	r8[0xc],r9
800064e4:	c2 79       	rjmp	80006732 <udc_process_setup+0x3aa>
800064e6:	30 18       	mov	r8,1
800064e8:	f0 09 19 00 	cp.h	r9,r8
800064ec:	e0 81 00 fb 	brne	800066e2 <udc_process_setup+0x35a>
800064f0:	30 1b       	mov	r11,1
800064f2:	4b dc       	lddpc	r12,800065e4 <udc_process_setup+0x25c>
800064f4:	c2 98       	rjmp	80006546 <udc_process_setup+0x1be>
800064f6:	58 16       	cp.w	r6,1
800064f8:	c2 a1       	brne	8000654c <udc_process_setup+0x1c4>
800064fa:	0f 9c       	ld.ub	r12,r7[0x1]
800064fc:	30 aa       	mov	r10,10
800064fe:	f4 0c 18 00 	cp.b	r12,r10
80006502:	e0 81 00 f0 	brne	800066e2 <udc_process_setup+0x35a>
80006506:	ec 09 19 00 	cp.h	r9,r6
8000650a:	e0 81 00 ec 	brne	800066e2 <udc_process_setup+0x35a>
8000650e:	4b 69       	lddpc	r9,800065e4 <udc_process_setup+0x25c>
80006510:	13 89       	ld.ub	r9,r9[0x0]
80006512:	f6 09 18 00 	cp.b	r9,r11
80006516:	e0 80 00 e6 	breq	800066e2 <udc_process_setup+0x35a>
8000651a:	4b 48       	lddpc	r8,800065e8 <udc_process_setup+0x260>
8000651c:	0f d7       	ld.ub	r7,r7[0x5]
8000651e:	70 06       	ld.w	r6,r8[0x0]
80006520:	6c 08       	ld.w	r8,r6[0x0]
80006522:	11 c8       	ld.ub	r8,r8[0x4]
80006524:	ee 08 18 00 	cp.b	r8,r7
80006528:	e0 88 00 dd 	brls	800066e2 <udc_process_setup+0x35a>
8000652c:	0e 9c       	mov	r12,r7
8000652e:	c1 fe       	rcall	8000616c <udc_update_iface_desc>
80006530:	e0 80 00 d9 	breq	800066e2 <udc_process_setup+0x35a>
80006534:	6c 18       	ld.w	r8,r6[0x4]
80006536:	f0 07 03 28 	ld.w	r8,r8[r7<<0x2]
8000653a:	70 3c       	ld.w	r12,r8[0xc]
8000653c:	5d 1c       	icall	r12
8000653e:	4a c8       	lddpc	r8,800065ec <udc_process_setup+0x264>
80006540:	30 1b       	mov	r11,1
80006542:	b0 8c       	st.b	r8[0x0],r12
80006544:	10 9c       	mov	r12,r8
80006546:	fe b0 f6 23 	rcall	8000518c <udd_set_setup_payload>
8000654a:	c3 48       	rjmp	800065b2 <udc_process_setup+0x22a>
8000654c:	58 26       	cp.w	r6,2
8000654e:	e0 81 00 ca 	brne	800066e2 <udc_process_setup+0x35a>
80006552:	0f 9a       	ld.ub	r10,r7[0x1]
80006554:	f6 0a 18 00 	cp.b	r10,r11
80006558:	e0 81 00 c5 	brne	800066e2 <udc_process_setup+0x35a>
8000655c:	ec 09 19 00 	cp.h	r9,r6
80006560:	e0 81 00 c1 	brne	800066e2 <udc_process_setup+0x35a>
80006564:	0f dc       	ld.ub	r12,r7[0x5]
80006566:	fe b0 f6 19 	rcall	80005198 <udd_ep_is_halted>
8000656a:	4a 28       	lddpc	r8,800065f0 <udc_process_setup+0x268>
8000656c:	e0 69 01 00 	mov	r9,256
80006570:	0c 9b       	mov	r11,r6
80006572:	58 0c       	cp.w	r12,0
80006574:	f9 b9 00 00 	moveq	r9,0
80006578:	b0 09       	st.h	r8[0x0],r9
8000657a:	ce 5b       	rjmp	80006544 <udc_process_setup+0x1bc>
8000657c:	ef d6 c0 05 	bfextu	r7,r6,0x0,0x5
80006580:	c6 71       	brne	8000664e <udc_process_setup+0x2c6>
80006582:	49 86       	lddpc	r6,800065e0 <udc_process_setup+0x258>
80006584:	30 59       	mov	r9,5
80006586:	0d 98       	ld.ub	r8,r6[0x1]
80006588:	f2 08 18 00 	cp.b	r8,r9
8000658c:	c0 b0       	breq	800065a2 <udc_process_setup+0x21a>
8000658e:	30 99       	mov	r9,9
80006590:	f2 08 18 00 	cp.b	r8,r9
80006594:	c3 20       	breq	800065f8 <udc_process_setup+0x270>
80006596:	30 19       	mov	r9,1
80006598:	f2 08 18 00 	cp.b	r8,r9
8000659c:	e0 81 00 a3 	brne	800066e2 <udc_process_setup+0x35a>
800065a0:	c0 a8       	rjmp	800065b4 <udc_process_setup+0x22c>
800065a2:	8c 38       	ld.sh	r8,r6[0x6]
800065a4:	ee 08 19 00 	cp.h	r8,r7
800065a8:	e0 81 00 9d 	brne	800066e2 <udc_process_setup+0x35a>
800065ac:	fe c8 03 84 	sub	r8,pc,900
800065b0:	8d 48       	st.w	r6[0x10],r8
800065b2:	da 2a       	popm	r4-r7,pc,r12=1
800065b4:	8c 38       	ld.sh	r8,r6[0x6]
800065b6:	ee 08 19 00 	cp.h	r8,r7
800065ba:	e0 81 00 94 	brne	800066e2 <udc_process_setup+0x35a>
800065be:	8c 19       	ld.sh	r9,r6[0x2]
800065c0:	30 18       	mov	r8,1
800065c2:	f0 09 19 00 	cp.h	r9,r8
800065c6:	e0 81 00 8e 	brne	800066e2 <udc_process_setup+0x35a>
800065ca:	48 b9       	lddpc	r9,800065f4 <udc_process_setup+0x26c>
800065cc:	30 1c       	mov	r12,1
800065ce:	92 08       	ld.sh	r8,r9[0x0]
800065d0:	a9 d8       	cbr	r8,0x9
800065d2:	b2 08       	st.h	r9[0x0],r8
800065d4:	d8 22       	popm	r4-r7,pc
800065d6:	d7 03       	nop
800065d8:	80 00       	ld.sh	r0,r0[0x0]
800065da:	6f 20       	ld.w	r0,r7[0x48]
800065dc:	00 00       	add	r0,r0
800065de:	00 c4       	st.b	r0++,r4
800065e0:	00 00       	add	r0,r0
800065e2:	09 94       	ld.ub	r4,r4[0x1]
800065e4:	00 00       	add	r0,r0
800065e6:	04 5e       	eor	lr,r2
800065e8:	00 00       	add	r0,r0
800065ea:	04 58       	eor	r8,r2
800065ec:	00 00       	add	r0,r0
800065ee:	04 54       	eor	r4,r2
800065f0:	00 00       	add	r0,r0
800065f2:	04 52       	eor	r2,r2
800065f4:	00 00       	add	r0,r0
800065f6:	04 5c       	eor	r12,r2
800065f8:	8c 39       	ld.sh	r9,r6[0x6]
800065fa:	ee 09 19 00 	cp.h	r9,r7
800065fe:	c7 21       	brne	800066e2 <udc_process_setup+0x35a>
80006600:	fe b0 f5 ba 	rcall	80005174 <udd_getaddress>
80006604:	c6 f0       	breq	800066e2 <udc_process_setup+0x35a>
80006606:	4a d5       	lddpc	r5,800066b8 <udc_process_setup+0x330>
80006608:	0d b9       	ld.ub	r9,r6[0x3]
8000660a:	6a 08       	ld.w	r8,r5[0x0]
8000660c:	f1 38 00 11 	ld.ub	r8,r8[17]
80006610:	10 39       	cp.w	r9,r8
80006612:	e0 89 00 68 	brgt	800066e2 <udc_process_setup+0x35a>
80006616:	c9 7e       	rcall	80006344 <udc_reset>
80006618:	0d b8       	ld.ub	r8,r6[0x3]
8000661a:	4a 99       	lddpc	r9,800066bc <udc_process_setup+0x334>
8000661c:	b2 88       	st.b	r9[0x0],r8
8000661e:	58 08       	cp.w	r8,0
80006620:	e0 80 00 89 	breq	80006732 <udc_process_setup+0x3aa>
80006624:	20 18       	sub	r8,1
80006626:	6a 19       	ld.w	r9,r5[0x4]
80006628:	4a 66       	lddpc	r6,800066c0 <udc_process_setup+0x338>
8000662a:	f2 08 00 38 	add	r8,r9,r8<<0x3
8000662e:	8d 08       	st.w	r6[0x0],r8
80006630:	c0 78       	rjmp	8000663e <udc_process_setup+0x2b6>
80006632:	0e 9c       	mov	r12,r7
80006634:	30 0b       	mov	r11,0
80006636:	c0 3e       	rcall	8000623c <udc_iface_enable>
80006638:	c5 50       	breq	800066e2 <udc_process_setup+0x35a>
8000663a:	2f f7       	sub	r7,-1
8000663c:	5c 57       	castu.b	r7
8000663e:	6c 08       	ld.w	r8,r6[0x0]
80006640:	70 08       	ld.w	r8,r8[0x0]
80006642:	11 c8       	ld.ub	r8,r8[0x4]
80006644:	ee 08 18 00 	cp.b	r8,r7
80006648:	fe 9b ff f5 	brhi	80006632 <udc_process_setup+0x2aa>
8000664c:	c7 38       	rjmp	80006732 <udc_process_setup+0x3aa>
8000664e:	58 17       	cp.w	r7,1
80006650:	c1 b1       	brne	80006686 <udc_process_setup+0x2fe>
80006652:	49 d9       	lddpc	r9,800066c4 <udc_process_setup+0x33c>
80006654:	30 ba       	mov	r10,11
80006656:	13 9c       	ld.ub	r12,r9[0x1]
80006658:	f4 0c 18 00 	cp.b	r12,r10
8000665c:	c4 31       	brne	800066e2 <udc_process_setup+0x35a>
8000665e:	92 3a       	ld.sh	r10,r9[0x6]
80006660:	f6 0a 19 00 	cp.h	r10,r11
80006664:	c3 f1       	brne	800066e2 <udc_process_setup+0x35a>
80006666:	49 6a       	lddpc	r10,800066bc <udc_process_setup+0x334>
80006668:	15 8a       	ld.ub	r10,r10[0x0]
8000666a:	f6 0a 18 00 	cp.b	r10,r11
8000666e:	c3 a0       	breq	800066e2 <udc_process_setup+0x35a>
80006670:	13 d7       	ld.ub	r7,r9[0x5]
80006672:	92 16       	ld.sh	r6,r9[0x2]
80006674:	0e 9c       	mov	r12,r7
80006676:	c2 7e       	rcall	800062c4 <udc_iface_disable>
80006678:	c3 50       	breq	800066e2 <udc_process_setup+0x35a>
8000667a:	f7 d6 c0 08 	bfextu	r11,r6,0x0,0x8
8000667e:	0e 9c       	mov	r12,r7
80006680:	fe b0 fd de 	rcall	8000623c <udc_iface_enable>
80006684:	c2 d8       	rjmp	800066de <udc_process_setup+0x356>
80006686:	58 27       	cp.w	r7,2
80006688:	c2 d1       	brne	800066e2 <udc_process_setup+0x35a>
8000668a:	48 f8       	lddpc	r8,800066c4 <udc_process_setup+0x33c>
8000668c:	30 1a       	mov	r10,1
8000668e:	11 99       	ld.ub	r9,r8[0x1]
80006690:	f4 09 18 00 	cp.b	r9,r10
80006694:	c0 60       	breq	800066a0 <udc_process_setup+0x318>
80006696:	30 3a       	mov	r10,3
80006698:	f4 09 18 00 	cp.b	r9,r10
8000669c:	c2 31       	brne	800066e2 <udc_process_setup+0x35a>
8000669e:	c1 58       	rjmp	800066c8 <udc_process_setup+0x340>
800066a0:	90 39       	ld.sh	r9,r8[0x6]
800066a2:	f6 09 19 00 	cp.h	r9,r11
800066a6:	c1 e1       	brne	800066e2 <udc_process_setup+0x35a>
800066a8:	90 1a       	ld.sh	r10,r8[0x2]
800066aa:	f2 0a 19 00 	cp.h	r10,r9
800066ae:	c1 a1       	brne	800066e2 <udc_process_setup+0x35a>
800066b0:	11 dc       	ld.ub	r12,r8[0x5]
800066b2:	fe b0 f5 bd 	rcall	8000522c <udd_ep_clear_halt>
800066b6:	c1 48       	rjmp	800066de <udc_process_setup+0x356>
800066b8:	00 00       	add	r0,r0
800066ba:	00 14       	sub	r4,r0
800066bc:	00 00       	add	r0,r0
800066be:	04 5e       	eor	lr,r2
800066c0:	00 00       	add	r0,r0
800066c2:	04 58       	eor	r8,r2
800066c4:	00 00       	add	r0,r0
800066c6:	09 94       	ld.ub	r4,r4[0x1]
800066c8:	90 39       	ld.sh	r9,r8[0x6]
800066ca:	f6 09 19 00 	cp.h	r9,r11
800066ce:	c0 a1       	brne	800066e2 <udc_process_setup+0x35a>
800066d0:	90 1a       	ld.sh	r10,r8[0x2]
800066d2:	f2 0a 19 00 	cp.h	r10,r9
800066d6:	c0 61       	brne	800066e2 <udc_process_setup+0x35a>
800066d8:	11 dc       	ld.ub	r12,r8[0x5]
800066da:	fe b0 f5 69 	rcall	800051ac <udd_ep_set_halt>
800066de:	58 0c       	cp.w	r12,0
800066e0:	c2 91       	brne	80006732 <udc_process_setup+0x3aa>
800066e2:	49 58       	lddpc	r8,80006734 <udc_process_setup+0x3ac>
800066e4:	11 89       	ld.ub	r9,r8[0x0]
800066e6:	f3 d9 c0 05 	bfextu	r9,r9,0x0,0x5
800066ea:	58 19       	cp.w	r9,1
800066ec:	c2 21       	brne	80006730 <udc_process_setup+0x3a8>
800066ee:	49 39       	lddpc	r9,80006738 <udc_process_setup+0x3b0>
800066f0:	13 8a       	ld.ub	r10,r9[0x0]
800066f2:	30 09       	mov	r9,0
800066f4:	f2 0a 18 00 	cp.b	r10,r9
800066f8:	c1 c0       	breq	80006730 <udc_process_setup+0x3a8>
800066fa:	11 d7       	ld.ub	r7,r8[0x5]
800066fc:	49 08       	lddpc	r8,8000673c <udc_process_setup+0x3b4>
800066fe:	70 06       	ld.w	r6,r8[0x0]
80006700:	6c 08       	ld.w	r8,r6[0x0]
80006702:	11 c8       	ld.ub	r8,r8[0x4]
80006704:	ee 08 18 00 	cp.b	r8,r7
80006708:	e0 88 00 14 	brls	80006730 <udc_process_setup+0x3a8>
8000670c:	30 0b       	mov	r11,0
8000670e:	0e 9c       	mov	r12,r7
80006710:	fe b0 fd 2e 	rcall	8000616c <udc_update_iface_desc>
80006714:	c0 e0       	breq	80006730 <udc_process_setup+0x3a8>
80006716:	6c 18       	ld.w	r8,r6[0x4]
80006718:	f0 07 03 26 	ld.w	r6,r8[r7<<0x2]
8000671c:	6c 3c       	ld.w	r12,r6[0xc]
8000671e:	5d 1c       	icall	r12
80006720:	18 9b       	mov	r11,r12
80006722:	0e 9c       	mov	r12,r7
80006724:	fe b0 fd 24 	rcall	8000616c <udc_update_iface_desc>
80006728:	c0 40       	breq	80006730 <udc_process_setup+0x3a8>
8000672a:	6c 2c       	ld.w	r12,r6[0x8]
8000672c:	5d 1c       	icall	r12
8000672e:	d8 22       	popm	r4-r7,pc
80006730:	d8 2a       	popm	r4-r7,pc,r12=0
80006732:	da 2a       	popm	r4-r7,pc,r12=1
80006734:	00 00       	add	r0,r0
80006736:	09 94       	ld.ub	r4,r4[0x1]
80006738:	00 00       	add	r0,r0
8000673a:	04 5e       	eor	lr,r2
8000673c:	00 00       	add	r0,r0
8000673e:	04 58       	eor	r8,r2

80006740 <udc_start>:
80006740:	d4 01       	pushm	lr
80006742:	fe b0 f8 b5 	rcall	800058ac <udd_enable>
80006746:	d8 02       	popm	pc

80006748 <main_suspend_action>:
80006748:	5e fc       	retal	r12

8000674a <main_resume_action>:
8000674a:	5e fc       	retal	r12

8000674c <main_msc_enable>:
8000674c:	30 19       	mov	r9,1
8000674e:	48 38       	lddpc	r8,80006758 <main_msc_enable+0xc>
80006750:	30 1c       	mov	r12,1
80006752:	b0 89       	st.b	r8[0x0],r9
80006754:	5e fc       	retal	r12
80006756:	d7 03       	nop
80006758:	00 00       	add	r0,r0
8000675a:	04 65       	and	r5,r2

8000675c <main_msc_disable>:
8000675c:	5e fc       	retal	r12
8000675e:	d7 03       	nop

80006760 <main_sof_action>:
80006760:	d4 01       	pushm	lr
80006762:	48 78       	lddpc	r8,8000677c <main_sof_action+0x1c>
80006764:	11 89       	ld.ub	r9,r8[0x0]
80006766:	30 08       	mov	r8,0
80006768:	f0 09 18 00 	cp.b	r9,r8
8000676c:	c0 60       	breq	80006778 <main_sof_action+0x18>
8000676e:	fe b0 f5 09 	rcall	80005180 <udd_get_frame_number>
80006772:	5c 7c       	castu.h	r12
80006774:	fe b0 f1 c0 	rcall	80004af4 <ui_process>
80006778:	d8 02       	popm	pc
8000677a:	d7 03       	nop
8000677c:	00 00       	add	r0,r0
8000677e:	04 65       	and	r5,r2

80006780 <main_vbus_action>:
80006780:	d4 01       	pushm	lr
80006782:	58 0c       	cp.w	r12,0
80006784:	c0 40       	breq	8000678c <main_vbus_action+0xc>
80006786:	fe b0 f7 33 	rcall	800055ec <udd_attach>
8000678a:	d8 02       	popm	pc
8000678c:	fe b0 f7 1e 	rcall	800055c8 <udd_detach>
80006790:	d8 02       	popm	pc
80006792:	d7 03       	nop

80006794 <sleepmgr_enter_sleep>:
80006794:	d3 03       	ssrf	0x10
80006796:	30 08       	mov	r8,0
80006798:	4a b9       	lddpc	r9,80006844 <sleepmgr_enter_sleep+0xb0>
8000679a:	10 9a       	mov	r10,r8
8000679c:	c0 38       	rjmp	800067a2 <sleepmgr_enter_sleep+0xe>
8000679e:	2f f9       	sub	r9,-1
800067a0:	2f f8       	sub	r8,-1
800067a2:	13 8b       	ld.ub	r11,r9[0x0]
800067a4:	f4 0b 18 00 	cp.b	r11,r10
800067a8:	cf b0       	breq	8000679e <sleepmgr_enter_sleep+0xa>
800067aa:	58 08       	cp.w	r8,0
800067ac:	c0 31       	brne	800067b2 <sleepmgr_enter_sleep+0x1e>
800067ae:	d5 03       	csrf	0x10
800067b0:	5e fc       	retal	r12
800067b2:	d3 03       	ssrf	0x10
800067b4:	20 18       	sub	r8,1
800067b6:	a7 b8       	sbr	r8,0x7
800067b8:	58 58       	cp.w	r8,5
800067ba:	c3 e0       	breq	80006836 <sleepmgr_enter_sleep+0xa2>
800067bc:	e0 89 00 0e 	brgt	800067d8 <sleepmgr_enter_sleep+0x44>
800067c0:	58 28       	cp.w	r8,2
800067c2:	c2 80       	breq	80006812 <sleepmgr_enter_sleep+0x7e>
800067c4:	e0 89 00 05 	brgt	800067ce <sleepmgr_enter_sleep+0x3a>
800067c8:	58 18       	cp.w	r8,1
800067ca:	5e 1c       	retne	r12
800067cc:	c1 d8       	rjmp	80006806 <sleepmgr_enter_sleep+0x72>
800067ce:	58 38       	cp.w	r8,3
800067d0:	c2 70       	breq	8000681e <sleepmgr_enter_sleep+0x8a>
800067d2:	58 48       	cp.w	r8,4
800067d4:	5e 1c       	retne	r12
800067d6:	c2 a8       	rjmp	8000682a <sleepmgr_enter_sleep+0x96>
800067d8:	e0 48 00 82 	cp.w	r8,130
800067dc:	c1 e0       	breq	80006818 <sleepmgr_enter_sleep+0x84>
800067de:	e0 89 00 09 	brgt	800067f0 <sleepmgr_enter_sleep+0x5c>
800067e2:	e0 48 00 80 	cp.w	r8,128
800067e6:	c0 d0       	breq	80006800 <sleepmgr_enter_sleep+0x6c>
800067e8:	e0 48 00 81 	cp.w	r8,129
800067ec:	5e 1c       	retne	r12
800067ee:	c0 f8       	rjmp	8000680c <sleepmgr_enter_sleep+0x78>
800067f0:	e0 48 00 84 	cp.w	r8,132
800067f4:	c1 e0       	breq	80006830 <sleepmgr_enter_sleep+0x9c>
800067f6:	c1 75       	brlt	80006824 <sleepmgr_enter_sleep+0x90>
800067f8:	e0 48 00 85 	cp.w	r8,133
800067fc:	5e 1c       	retne	r12
800067fe:	c1 f8       	rjmp	8000683c <sleepmgr_enter_sleep+0xa8>
80006800:	e9 b0 00 80 	sleep	0x80
80006804:	5e fc       	retal	r12
80006806:	e9 b0 00 01 	sleep	0x1
8000680a:	5e fc       	retal	r12
8000680c:	e9 b0 00 81 	sleep	0x81
80006810:	5e fc       	retal	r12
80006812:	e9 b0 00 02 	sleep	0x2
80006816:	5e fc       	retal	r12
80006818:	e9 b0 00 82 	sleep	0x82
8000681c:	5e fc       	retal	r12
8000681e:	e9 b0 00 03 	sleep	0x3
80006822:	5e fc       	retal	r12
80006824:	e9 b0 00 83 	sleep	0x83
80006828:	5e fc       	retal	r12
8000682a:	e9 b0 00 04 	sleep	0x4
8000682e:	5e fc       	retal	r12
80006830:	e9 b0 00 84 	sleep	0x84
80006834:	5e fc       	retal	r12
80006836:	e9 b0 00 05 	sleep	0x5
8000683a:	5e fc       	retal	r12
8000683c:	e9 b0 00 85 	sleep	0x85
80006840:	5e fc       	retal	r12
80006842:	d7 03       	nop
80006844:	00 00       	add	r0,r0
80006846:	09 ac       	ld.ub	r12,r4[0x2]

80006848 <memories_initialization>:
80006848:	d4 21       	pushm	r4-r7,lr
8000684a:	20 4d       	sub	sp,16
8000684c:	49 b8       	lddpc	r8,800068b8 <memories_initialization+0x70>
8000684e:	f0 ea 00 08 	ld.d	r10,r8[8]
80006852:	fa eb 00 08 	st.d	sp[8],r10
80006856:	f0 e8 00 00 	ld.d	r8,r8[0]
8000685a:	18 97       	mov	r7,r12
8000685c:	fa e9 00 00 	st.d	sp[0],r8
80006860:	30 5b       	mov	r11,5
80006862:	30 2c       	mov	r12,2
80006864:	fe b0 fb 6b 	rcall	80005f3a <sysclk_priv_enable_module>
80006868:	fe 7c 24 00 	mov	r12,-56320
8000686c:	1a 96       	mov	r6,sp
8000686e:	fe b0 f4 4e 	rcall	8000510a <spi_is_enabled>
80006872:	18 95       	mov	r5,r12
80006874:	c1 11       	brne	80006896 <memories_initialization+0x4e>
80006876:	1a 9b       	mov	r11,sp
80006878:	fe 7c 24 00 	mov	r12,-56320
8000687c:	fe b0 f3 86 	rcall	80004f88 <spi_initMaster>
80006880:	0a 99       	mov	r9,r5
80006882:	0a 9a       	mov	r10,r5
80006884:	0a 9b       	mov	r11,r5
80006886:	fe 7c 24 00 	mov	r12,-56320
8000688a:	fe b0 f3 9c 	rcall	80004fc2 <spi_selectionMode>
8000688e:	fe 7c 24 00 	mov	r12,-56320
80006892:	fe b0 f4 39 	rcall	80005104 <spi_enable>
80006896:	20 4d       	sub	sp,16
80006898:	fa c8 ff f0 	sub	r8,sp,-16
8000689c:	f0 ea 00 08 	ld.d	r10,r8[8]
800068a0:	fa eb 00 08 	st.d	sp[8],r10
800068a4:	f0 e8 00 00 	ld.d	r8,r8[0]
800068a8:	0e 9c       	mov	r12,r7
800068aa:	fa e9 00 00 	st.d	sp[0],r8
800068ae:	fe b0 e0 6f 	rcall	8000298c <sd_mmc_spi_init>
800068b2:	2f cd       	sub	sp,-16
800068b4:	2f cd       	sub	sp,-16
800068b6:	d8 22       	popm	r4-r7,pc
800068b8:	80 00       	ld.sh	r0,r0[0x0]
800068ba:	6f 40       	ld.w	r0,r7[0x50]

800068bc <main>:
800068bc:	d4 21       	pushm	r4-r7,lr
800068be:	fe b0 f3 13 	rcall	80004ee4 <INTC_init_interrupts>
800068c2:	d5 03       	csrf	0x10
800068c4:	4b 48       	lddpc	r8,80006994 <main+0xd8>
800068c6:	30 19       	mov	r9,1
800068c8:	30 07       	mov	r7,0
800068ca:	b0 e9       	st.b	r8[0x6],r9
800068cc:	b0 87       	st.b	r8[0x0],r7
800068ce:	b0 97       	st.b	r8[0x1],r7
800068d0:	b0 a7       	st.b	r8[0x2],r7
800068d2:	b0 b7       	st.b	r8[0x3],r7
800068d4:	b0 c7       	st.b	r8[0x4],r7
800068d6:	b0 d7       	st.b	r8[0x5],r7
800068d8:	fe b0 fb 94 	rcall	80006000 <sysclk_init>
800068dc:	fe b0 db 94 	rcall	80002004 <board_init>
800068e0:	e0 6c 1b 00 	mov	r12,6912
800068e4:	ea 1c 00 b7 	orh	r12,0xb7
800068e8:	cb 0f       	rcall	80006848 <memories_initialization>
800068ea:	fe b0 ed 19 	rcall	8000431c <nav_reset>
800068ee:	4a b8       	lddpc	r8,80006998 <main+0xdc>
800068f0:	30 0a       	mov	r10,0
800068f2:	70 0c       	ld.w	r12,r8[0x0]
800068f4:	14 9b       	mov	r11,r10
800068f6:	fe b0 ec 2f 	rcall	80004154 <nav_setcwd>
800068fa:	c3 b0       	breq	80006970 <main+0xb4>
800068fc:	30 9c       	mov	r12,9
800068fe:	fe b0 ea 35 	rcall	80003d68 <file_open>
80006902:	fe b0 e9 55 	rcall	80003bac <file_bof>
80006906:	fe b0 e9 61 	rcall	80003bc8 <file_getc>
8000690a:	ed dc b0 10 	bfexts	r6,r12,0x0,0x10
8000690e:	fe b0 e9 5d 	rcall	80003bc8 <file_getc>
80006912:	5c 7c       	castu.h	r12
80006914:	4a 24       	lddpc	r4,8000699c <main+0xe0>
80006916:	ed ec 10 86 	or	r6,r6,r12<<0x8
8000691a:	a8 06       	st.h	r4[0x0],r6
8000691c:	fe b0 e9 56 	rcall	80003bc8 <file_getc>
80006920:	ed dc b0 10 	bfexts	r6,r12,0x0,0x10
80006924:	fe b0 e9 52 	rcall	80003bc8 <file_getc>
80006928:	5c 7c       	castu.h	r12
8000692a:	49 e5       	lddpc	r5,800069a0 <main+0xe4>
8000692c:	ed ec 10 86 	or	r6,r6,r12<<0x8
80006930:	aa 06       	st.h	r5[0x0],r6
80006932:	fe b0 e9 4b 	rcall	80003bc8 <file_getc>
80006936:	49 c8       	lddpc	r8,800069a4 <main+0xe8>
80006938:	49 c6       	lddpc	r6,800069a8 <main+0xec>
8000693a:	b0 8c       	st.b	r8[0x0],r12
8000693c:	30 1b       	mov	r11,1
8000693e:	0c 9c       	mov	r12,r6
80006940:	fe b0 e9 72 	rcall	80003c24 <file_read_buf>
80006944:	88 8a       	ld.uh	r10,r4[0x0]
80006946:	8a 89       	ld.uh	r9,r5[0x0]
80006948:	49 98       	lddpc	r8,800069ac <main+0xf0>
8000694a:	f1 6a 00 09 	st.b	r8[9],r10
8000694e:	f1 69 00 0b 	st.b	r8[11],r9
80006952:	f1 67 00 0c 	st.b	r8[12],r7
80006956:	a9 89       	lsr	r9,0x8
80006958:	49 6b       	lddpc	r11,800069b0 <main+0xf4>
8000695a:	97 06       	st.w	r11[0x0],r6
8000695c:	a9 8a       	lsr	r10,0x8
8000695e:	f1 69 00 0a 	st.b	r8[10],r9
80006962:	30 29       	mov	r9,2
80006964:	f1 6a 00 08 	st.b	r8[8],r10
80006968:	f1 69 00 0d 	st.b	r8[13],r9
8000696c:	fe b0 e9 08 	rcall	80003b7c <file_close>
80006970:	ce 8e       	rcall	80006740 <udc_start>
80006972:	fe b0 f3 ef 	rcall	80005150 <udd_include_vbus_monitoring>
80006976:	c0 31       	brne	8000697c <main+0xc0>
80006978:	30 1c       	mov	r12,1
8000697a:	c0 3f       	rcall	80006780 <main_vbus_action>
8000697c:	48 e6       	lddpc	r6,800069b4 <main+0xf8>
8000697e:	30 07       	mov	r7,0
80006980:	0d 88       	ld.ub	r8,r6[0x0]
80006982:	ee 08 18 00 	cp.b	r8,r7
80006986:	c0 40       	breq	8000698e <main+0xd2>
80006988:	fe b0 f0 76 	rcall	80004a74 <udi_msc_process_trans>
8000698c:	cf a1       	brne	80006980 <main+0xc4>
8000698e:	c0 3f       	rcall	80006794 <sleepmgr_enter_sleep>
80006990:	cf 8b       	rjmp	80006980 <main+0xc4>
80006992:	d7 03       	nop
80006994:	00 00       	add	r0,r0
80006996:	09 ac       	ld.ub	r12,r4[0x2]
80006998:	00 00       	add	r0,r0
8000699a:	00 f0       	st.b	--r0,r0
8000699c:	00 00       	add	r0,r0
8000699e:	09 b6       	ld.ub	r6,r4[0x3]
800069a0:	00 00       	add	r0,r0
800069a2:	09 b4       	ld.ub	r4,r4[0x3]
800069a4:	00 00       	add	r0,r0
800069a6:	04 64       	and	r4,r2
800069a8:	00 00       	add	r0,r0
800069aa:	04 68       	and	r8,r2
800069ac:	00 00       	add	r0,r0
800069ae:	00 1c       	sub	r12,r0
800069b0:	00 00       	add	r0,r0
800069b2:	04 74       	tst	r4,r2
800069b4:	00 00       	add	r0,r0
800069b6:	04 65       	and	r5,r2

800069b8 <memcpy>:
800069b8:	58 8a       	cp.w	r10,8
800069ba:	c2 f5       	brlt	80006a18 <memcpy+0x60>
800069bc:	f9 eb 10 09 	or	r9,r12,r11
800069c0:	e2 19 00 03 	andl	r9,0x3,COH
800069c4:	e0 81 00 97 	brne	80006af2 <memcpy+0x13a>
800069c8:	e0 4a 00 20 	cp.w	r10,32
800069cc:	c3 b4       	brge	80006a42 <memcpy+0x8a>
800069ce:	f4 08 14 02 	asr	r8,r10,0x2
800069d2:	f0 09 11 08 	rsub	r9,r8,8
800069d6:	fe 09 00 2f 	add	pc,pc,r9<<0x2
800069da:	76 69       	ld.w	r9,r11[0x18]
800069dc:	99 69       	st.w	r12[0x18],r9
800069de:	76 59       	ld.w	r9,r11[0x14]
800069e0:	99 59       	st.w	r12[0x14],r9
800069e2:	76 49       	ld.w	r9,r11[0x10]
800069e4:	99 49       	st.w	r12[0x10],r9
800069e6:	76 39       	ld.w	r9,r11[0xc]
800069e8:	99 39       	st.w	r12[0xc],r9
800069ea:	76 29       	ld.w	r9,r11[0x8]
800069ec:	99 29       	st.w	r12[0x8],r9
800069ee:	76 19       	ld.w	r9,r11[0x4]
800069f0:	99 19       	st.w	r12[0x4],r9
800069f2:	76 09       	ld.w	r9,r11[0x0]
800069f4:	99 09       	st.w	r12[0x0],r9
800069f6:	f6 08 00 2b 	add	r11,r11,r8<<0x2
800069fa:	f8 08 00 28 	add	r8,r12,r8<<0x2
800069fe:	e0 1a 00 03 	andl	r10,0x3
80006a02:	f4 0a 11 04 	rsub	r10,r10,4
80006a06:	fe 0a 00 2f 	add	pc,pc,r10<<0x2
80006a0a:	17 a9       	ld.ub	r9,r11[0x2]
80006a0c:	b0 a9       	st.b	r8[0x2],r9
80006a0e:	17 99       	ld.ub	r9,r11[0x1]
80006a10:	b0 99       	st.b	r8[0x1],r9
80006a12:	17 89       	ld.ub	r9,r11[0x0]
80006a14:	b0 89       	st.b	r8[0x0],r9
80006a16:	5e fc       	retal	r12
80006a18:	f4 0a 11 09 	rsub	r10,r10,9
80006a1c:	fe 0a 00 2f 	add	pc,pc,r10<<0x2
80006a20:	17 f9       	ld.ub	r9,r11[0x7]
80006a22:	b8 f9       	st.b	r12[0x7],r9
80006a24:	17 e9       	ld.ub	r9,r11[0x6]
80006a26:	b8 e9       	st.b	r12[0x6],r9
80006a28:	17 d9       	ld.ub	r9,r11[0x5]
80006a2a:	b8 d9       	st.b	r12[0x5],r9
80006a2c:	17 c9       	ld.ub	r9,r11[0x4]
80006a2e:	b8 c9       	st.b	r12[0x4],r9
80006a30:	17 b9       	ld.ub	r9,r11[0x3]
80006a32:	b8 b9       	st.b	r12[0x3],r9
80006a34:	17 a9       	ld.ub	r9,r11[0x2]
80006a36:	b8 a9       	st.b	r12[0x2],r9
80006a38:	17 99       	ld.ub	r9,r11[0x1]
80006a3a:	b8 99       	st.b	r12[0x1],r9
80006a3c:	17 89       	ld.ub	r9,r11[0x0]
80006a3e:	b8 89       	st.b	r12[0x0],r9
80006a40:	5e fc       	retal	r12
80006a42:	eb cd 40 c0 	pushm	r6-r7,lr
80006a46:	18 99       	mov	r9,r12
80006a48:	22 0a       	sub	r10,32
80006a4a:	b7 07       	ld.d	r6,r11++
80006a4c:	b3 26       	st.d	r9++,r6
80006a4e:	b7 07       	ld.d	r6,r11++
80006a50:	b3 26       	st.d	r9++,r6
80006a52:	b7 07       	ld.d	r6,r11++
80006a54:	b3 26       	st.d	r9++,r6
80006a56:	b7 07       	ld.d	r6,r11++
80006a58:	b3 26       	st.d	r9++,r6
80006a5a:	22 0a       	sub	r10,32
80006a5c:	cf 74       	brge	80006a4a <memcpy+0x92>
80006a5e:	2f 0a       	sub	r10,-16
80006a60:	c0 65       	brlt	80006a6c <memcpy+0xb4>
80006a62:	b7 07       	ld.d	r6,r11++
80006a64:	b3 26       	st.d	r9++,r6
80006a66:	b7 07       	ld.d	r6,r11++
80006a68:	b3 26       	st.d	r9++,r6
80006a6a:	21 0a       	sub	r10,16
80006a6c:	5c 3a       	neg	r10
80006a6e:	fe 0a 00 3f 	add	pc,pc,r10<<0x3
80006a72:	d7 03       	nop
80006a74:	d7 03       	nop
80006a76:	f7 36 00 0e 	ld.ub	r6,r11[14]
80006a7a:	f3 66 00 0e 	st.b	r9[14],r6
80006a7e:	f7 36 00 0d 	ld.ub	r6,r11[13]
80006a82:	f3 66 00 0d 	st.b	r9[13],r6
80006a86:	f7 36 00 0c 	ld.ub	r6,r11[12]
80006a8a:	f3 66 00 0c 	st.b	r9[12],r6
80006a8e:	f7 36 00 0b 	ld.ub	r6,r11[11]
80006a92:	f3 66 00 0b 	st.b	r9[11],r6
80006a96:	f7 36 00 0a 	ld.ub	r6,r11[10]
80006a9a:	f3 66 00 0a 	st.b	r9[10],r6
80006a9e:	f7 36 00 09 	ld.ub	r6,r11[9]
80006aa2:	f3 66 00 09 	st.b	r9[9],r6
80006aa6:	f7 36 00 08 	ld.ub	r6,r11[8]
80006aaa:	f3 66 00 08 	st.b	r9[8],r6
80006aae:	f7 36 00 07 	ld.ub	r6,r11[7]
80006ab2:	f3 66 00 07 	st.b	r9[7],r6
80006ab6:	f7 36 00 06 	ld.ub	r6,r11[6]
80006aba:	f3 66 00 06 	st.b	r9[6],r6
80006abe:	f7 36 00 05 	ld.ub	r6,r11[5]
80006ac2:	f3 66 00 05 	st.b	r9[5],r6
80006ac6:	f7 36 00 04 	ld.ub	r6,r11[4]
80006aca:	f3 66 00 04 	st.b	r9[4],r6
80006ace:	f7 36 00 03 	ld.ub	r6,r11[3]
80006ad2:	f3 66 00 03 	st.b	r9[3],r6
80006ad6:	f7 36 00 02 	ld.ub	r6,r11[2]
80006ada:	f3 66 00 02 	st.b	r9[2],r6
80006ade:	f7 36 00 01 	ld.ub	r6,r11[1]
80006ae2:	f3 66 00 01 	st.b	r9[1],r6
80006ae6:	f7 36 00 00 	ld.ub	r6,r11[0]
80006aea:	f3 66 00 00 	st.b	r9[0],r6
80006aee:	e3 cd 80 c0 	ldm	sp++,r6-r7,pc
80006af2:	20 1a       	sub	r10,1
80006af4:	f6 0a 07 09 	ld.ub	r9,r11[r10]
80006af8:	f8 0a 0b 09 	st.b	r12[r10],r9
80006afc:	cf b1       	brne	80006af2 <memcpy+0x13a>
80006afe:	5e fc       	retal	r12

80006b00 <memset>:
80006b00:	18 98       	mov	r8,r12
80006b02:	c0 38       	rjmp	80006b08 <memset+0x8>
80006b04:	10 cb       	st.b	r8++,r11
80006b06:	20 1a       	sub	r10,1
80006b08:	58 0a       	cp.w	r10,0
80006b0a:	cf d1       	brne	80006b04 <memset+0x4>
80006b0c:	5e fc       	retal	r12

Disassembly of section .exception:

80006c00 <_evba>:
80006c00:	c0 08       	rjmp	80006c00 <_evba>
	...

80006c04 <_handle_TLB_Multiple_Hit>:
80006c04:	c0 08       	rjmp	80006c04 <_handle_TLB_Multiple_Hit>
	...

80006c08 <_handle_Bus_Error_Data_Fetch>:
80006c08:	c0 08       	rjmp	80006c08 <_handle_Bus_Error_Data_Fetch>
	...

80006c0c <_handle_Bus_Error_Instruction_Fetch>:
80006c0c:	c0 08       	rjmp	80006c0c <_handle_Bus_Error_Instruction_Fetch>
	...

80006c10 <_handle_NMI>:
80006c10:	c0 08       	rjmp	80006c10 <_handle_NMI>
	...

80006c14 <_handle_Instruction_Address>:
80006c14:	c0 08       	rjmp	80006c14 <_handle_Instruction_Address>
	...

80006c18 <_handle_ITLB_Protection>:
80006c18:	c0 08       	rjmp	80006c18 <_handle_ITLB_Protection>
	...

80006c1c <_handle_Breakpoint>:
80006c1c:	c0 08       	rjmp	80006c1c <_handle_Breakpoint>
	...

80006c20 <_handle_Illegal_Opcode>:
80006c20:	c0 08       	rjmp	80006c20 <_handle_Illegal_Opcode>
	...

80006c24 <_handle_Unimplemented_Instruction>:
80006c24:	c0 08       	rjmp	80006c24 <_handle_Unimplemented_Instruction>
	...

80006c28 <_handle_Privilege_Violation>:
80006c28:	c0 08       	rjmp	80006c28 <_handle_Privilege_Violation>
	...

80006c2c <_handle_Floating_Point>:
80006c2c:	c0 08       	rjmp	80006c2c <_handle_Floating_Point>
	...

80006c30 <_handle_Coprocessor_Absent>:
80006c30:	c0 08       	rjmp	80006c30 <_handle_Coprocessor_Absent>
	...

80006c34 <_handle_Data_Address_Read>:
80006c34:	c0 08       	rjmp	80006c34 <_handle_Data_Address_Read>
	...

80006c38 <_handle_Data_Address_Write>:
80006c38:	c0 08       	rjmp	80006c38 <_handle_Data_Address_Write>
	...

80006c3c <_handle_DTLB_Protection_Read>:
80006c3c:	c0 08       	rjmp	80006c3c <_handle_DTLB_Protection_Read>
	...

80006c40 <_handle_DTLB_Protection_Write>:
80006c40:	c0 08       	rjmp	80006c40 <_handle_DTLB_Protection_Write>
	...

80006c44 <_handle_DTLB_Modified>:
80006c44:	c0 08       	rjmp	80006c44 <_handle_DTLB_Modified>
	...

80006c50 <_handle_ITLB_Miss>:
80006c50:	c0 08       	rjmp	80006c50 <_handle_ITLB_Miss>
	...

80006c60 <_handle_DTLB_Miss_Read>:
80006c60:	c0 08       	rjmp	80006c60 <_handle_DTLB_Miss_Read>
	...

80006c70 <_handle_DTLB_Miss_Write>:
80006c70:	c0 08       	rjmp	80006c70 <_handle_DTLB_Miss_Write>
	...

80006d00 <_handle_Supervisor_Call>:
80006d00:	c0 08       	rjmp	80006d00 <_handle_Supervisor_Call>
80006d02:	d7 03       	nop

80006d04 <_int0>:
80006d04:	30 0c       	mov	r12,0
80006d06:	fe b0 f1 11 	rcall	80004f28 <_get_interrupt_handler>
80006d0a:	58 0c       	cp.w	r12,0
80006d0c:	f8 0f 17 10 	movne	pc,r12
80006d10:	d6 03       	rete

80006d12 <_int1>:
80006d12:	30 1c       	mov	r12,1
80006d14:	fe b0 f1 0a 	rcall	80004f28 <_get_interrupt_handler>
80006d18:	58 0c       	cp.w	r12,0
80006d1a:	f8 0f 17 10 	movne	pc,r12
80006d1e:	d6 03       	rete

80006d20 <_int2>:
80006d20:	30 2c       	mov	r12,2
80006d22:	fe b0 f1 03 	rcall	80004f28 <_get_interrupt_handler>
80006d26:	58 0c       	cp.w	r12,0
80006d28:	f8 0f 17 10 	movne	pc,r12
80006d2c:	d6 03       	rete

80006d2e <_int3>:
80006d2e:	30 3c       	mov	r12,3
80006d30:	fe b0 f0 fc 	rcall	80004f28 <_get_interrupt_handler>
80006d34:	58 0c       	cp.w	r12,0
80006d36:	f8 0f 17 10 	movne	pc,r12
80006d3a:	d6 03       	rete
80006d3c:	d7 03       	nop
80006d3e:	d7 03       	nop
80006d40:	d7 03       	nop
80006d42:	d7 03       	nop
80006d44:	d7 03       	nop
80006d46:	d7 03       	nop
80006d48:	d7 03       	nop
80006d4a:	d7 03       	nop
80006d4c:	d7 03       	nop
80006d4e:	d7 03       	nop
80006d50:	d7 03       	nop
80006d52:	d7 03       	nop
80006d54:	d7 03       	nop
80006d56:	d7 03       	nop
80006d58:	d7 03       	nop
80006d5a:	d7 03       	nop
80006d5c:	d7 03       	nop
80006d5e:	d7 03       	nop
80006d60:	d7 03       	nop
80006d62:	d7 03       	nop
80006d64:	d7 03       	nop
80006d66:	d7 03       	nop
80006d68:	d7 03       	nop
80006d6a:	d7 03       	nop
80006d6c:	d7 03       	nop
80006d6e:	d7 03       	nop
80006d70:	d7 03       	nop
80006d72:	d7 03       	nop
80006d74:	d7 03       	nop
80006d76:	d7 03       	nop
80006d78:	d7 03       	nop
80006d7a:	d7 03       	nop
80006d7c:	d7 03       	nop
80006d7e:	d7 03       	nop
80006d80:	d7 03       	nop
80006d82:	d7 03       	nop
80006d84:	d7 03       	nop
80006d86:	d7 03       	nop
80006d88:	d7 03       	nop
80006d8a:	d7 03       	nop
80006d8c:	d7 03       	nop
80006d8e:	d7 03       	nop
80006d90:	d7 03       	nop
80006d92:	d7 03       	nop
80006d94:	d7 03       	nop
80006d96:	d7 03       	nop
80006d98:	d7 03       	nop
80006d9a:	d7 03       	nop
80006d9c:	d7 03       	nop
80006d9e:	d7 03       	nop
80006da0:	d7 03       	nop
80006da2:	d7 03       	nop
80006da4:	d7 03       	nop
80006da6:	d7 03       	nop
80006da8:	d7 03       	nop
80006daa:	d7 03       	nop
80006dac:	d7 03       	nop
80006dae:	d7 03       	nop
80006db0:	d7 03       	nop
80006db2:	d7 03       	nop
80006db4:	d7 03       	nop
80006db6:	d7 03       	nop
80006db8:	d7 03       	nop
80006dba:	d7 03       	nop
80006dbc:	d7 03       	nop
80006dbe:	d7 03       	nop
80006dc0:	d7 03       	nop
80006dc2:	d7 03       	nop
80006dc4:	d7 03       	nop
80006dc6:	d7 03       	nop
80006dc8:	d7 03       	nop
80006dca:	d7 03       	nop
80006dcc:	d7 03       	nop
80006dce:	d7 03       	nop
80006dd0:	d7 03       	nop
80006dd2:	d7 03       	nop
80006dd4:	d7 03       	nop
80006dd6:	d7 03       	nop
80006dd8:	d7 03       	nop
80006dda:	d7 03       	nop
80006ddc:	d7 03       	nop
80006dde:	d7 03       	nop
80006de0:	d7 03       	nop
80006de2:	d7 03       	nop
80006de4:	d7 03       	nop
80006de6:	d7 03       	nop
80006de8:	d7 03       	nop
80006dea:	d7 03       	nop
80006dec:	d7 03       	nop
80006dee:	d7 03       	nop
80006df0:	d7 03       	nop
80006df2:	d7 03       	nop
80006df4:	d7 03       	nop
80006df6:	d7 03       	nop
80006df8:	d7 03       	nop
80006dfa:	d7 03       	nop
80006dfc:	d7 03       	nop
80006dfe:	d7 03       	nop
